                                      1 ;--------------------------------------------------------
                                      2 ; File Created by SDCC : free open source ANSI-C Compiler
                                      3 ; Version 4.1.0 #12072 (MINGW32)
                                      4 ;--------------------------------------------------------
                                      5 	.module main
                                      6 	.optsdcc -mgbz80
                                      7 	
                                      8 ;--------------------------------------------------------
                                      9 ; Public variables in this module
                                     10 ;--------------------------------------------------------
                                     11 	.globl _main
                                     12 	.globl _drawSetInMode
                                     13 	.globl _funcY
                                     14 	.globl _funcX
                                     15 	.globl _mapRange
                                     16 	.globl _smoothColor
                                     17 	.globl _getAbs
                                     18 	.globl _intMod
                                     19 	.globl _plot
                                     20 	.globl _multi
                                     21 	.globl _Zoom
                                     22 	.globl _yCoord
                                     23 	.globl _xCoord
                                     24 	.globl _factor
                                     25 	.globl _res
                                     26 	.globl _y
                                     27 	.globl _x
                                     28 	.globl _funcNum
                                     29 	.globl _juliaMode
                                     30 	.globl _t
                                     31 	.globl _ySize
                                     32 	.globl _xSize
                                     33 ;--------------------------------------------------------
                                     34 ; special function registers
                                     35 ;--------------------------------------------------------
                                     36 ;--------------------------------------------------------
                                     37 ; ram data
                                     38 ;--------------------------------------------------------
                                     39 	.area _DATA
      000000                         40 _xSize::
      000000                         41 	.ds 2
      000002                         42 _ySize::
      000002                         43 	.ds 2
      000004                         44 _t::
      000004                         45 	.ds 2
      000006                         46 _juliaMode::
      000006                         47 	.ds 2
      000008                         48 _funcNum::
      000008                         49 	.ds 2
      00000A                         50 _x::
      00000A                         51 	.ds 2
      00000C                         52 _y::
      00000C                         53 	.ds 2
      00000E                         54 _res::
      00000E                         55 	.ds 2
      000010                         56 _factor::
      000010                         57 	.ds 2
      000012                         58 _xCoord::
      000012                         59 	.ds 4
      000016                         60 _yCoord::
      000016                         61 	.ds 4
      00001A                         62 _Zoom::
      00001A                         63 	.ds 4
      00001E                         64 _multi::
      00001E                         65 	.ds 4
                                     66 ;--------------------------------------------------------
                                     67 ; absolute external ram data
                                     68 ;--------------------------------------------------------
                                     69 	.area _DABS (ABS)
                                     70 ;--------------------------------------------------------
                                     71 ; global & static initialisations
                                     72 ;--------------------------------------------------------
                                     73 	.area _HOME
                                     74 	.area _GSINIT
                                     75 	.area _GSFINAL
                                     76 	.area _GSINIT
                                     77 ;--------------------------------------------------------
                                     78 ; Home
                                     79 ;--------------------------------------------------------
                                     80 	.area _HOME
                                     81 	.area _HOME
                                     82 ;--------------------------------------------------------
                                     83 ; code
                                     84 ;--------------------------------------------------------
                                     85 	.area _CODE
                                     86 ;main.c:11: int intMod(int x, int y) {
                                     87 ;	---------------------------------
                                     88 ; Function intMod
                                     89 ; ---------------------------------
      000000                         90 _intMod::
                                     91 ;main.c:12: return (x - y*(x/y));
      000000 F8 04                   92 	ldhl	sp,	#4
      000002 2A                      93 	ld	a, (hl+)
      000003 66                      94 	ld	h, (hl)
      000004 6F                      95 	ld	l, a
      000005 E5                      96 	push	hl
      000006 F8 04                   97 	ldhl	sp,	#4
      000008 2A                      98 	ld	a, (hl+)
      000009 66                      99 	ld	h, (hl)
      00000A 6F                     100 	ld	l, a
      00000B E5                     101 	push	hl
      00000C CDr00r00               102 	call	__divsint
      00000F E8 04                  103 	add	sp, #4
      000011 D5                     104 	push	de
      000012 F8 06                  105 	ldhl	sp,	#6
      000014 2A                     106 	ld	a, (hl+)
      000015 66                     107 	ld	h, (hl)
      000016 6F                     108 	ld	l, a
      000017 E5                     109 	push	hl
      000018 CDr00r00               110 	call	__mulint
      00001B E8 04                  111 	add	sp, #4
      00001D 4B                     112 	ld	c, e
      00001E 42                     113 	ld	b, d
      00001F F8 02                  114 	ldhl	sp,#2
      000021 2A                     115 	ld	a, (hl+)
      000022 5F                     116 	ld	e, a
      000023 56                     117 	ld	d, (hl)
      000024 7B                     118 	ld	a, e
      000025 91                     119 	sub	a, c
      000026 5F                     120 	ld	e, a
      000027 7A                     121 	ld	a, d
      000028 98                     122 	sbc	a, b
      000029 57                     123 	ld	d, a
                                    124 ;main.c:13: }
      00002A C9                     125 	ret
                                    126 ;main.c:16: long getAbs(long n) {
                                    127 ;	---------------------------------
                                    128 ; Function getAbs
                                    129 ; ---------------------------------
      00002B                        130 _getAbs::
                                    131 ;main.c:17: if (n < 0) {
      00002B F8 02                  132 	ldhl	sp,	#2
      00002D 7E                     133 	ld	a, (hl)
      00002E D6 00                  134 	sub	a, #0x00
      000030 23                     135 	inc	hl
      000031 7E                     136 	ld	a, (hl)
      000032 DE 00                  137 	sbc	a, #0x00
      000034 23                     138 	inc	hl
      000035 7E                     139 	ld	a, (hl)
      000036 DE 00                  140 	sbc	a, #0x00
      000038 23                     141 	inc	hl
      000039 7E                     142 	ld	a, (hl)
      00003A DE 00                  143 	sbc	a, #0x00
      00003C 56                     144 	ld	d, (hl)
      00003D 3E 00                  145 	ld	a, #0x00
      00003F CB 7F                  146 	bit	7,a
      000041 28 07                  147 	jr	Z, 00110$
      000043 CB 7A                  148 	bit	7, d
      000045 20 08                  149 	jr	NZ, 00111$
      000047 BF                     150 	cp	a, a
      000048 18 05                  151 	jr	00111$
      00004A                        152 00110$:
      00004A CB 7A                  153 	bit	7, d
      00004C 28 01                  154 	jr	Z, 00111$
      00004E 37                     155 	scf
      00004F                        156 00111$:
      00004F 30 1C                  157 	jr	NC, 00102$
                                    158 ;main.c:18: n = (-1) * n;
      000051 11 00 00               159 	ld	de, #0x0000
      000054 7B                     160 	ld	a, e
      000055 F8 02                  161 	ldhl	sp,	#2
      000057 96                     162 	sub	a, (hl)
      000058 5F                     163 	ld	e, a
      000059 7A                     164 	ld	a, d
      00005A 23                     165 	inc	hl
      00005B 9E                     166 	sbc	a, (hl)
      00005C F5                     167 	push	af
      00005D 32                     168 	ld	(hl-), a
      00005E 73                     169 	ld	(hl), e
      00005F 11 00 00               170 	ld	de, #0x0000
      000062 23                     171 	inc	hl
      000063 23                     172 	inc	hl
      000064 F1                     173 	pop	af
      000065 7B                     174 	ld	a, e
      000066 9E                     175 	sbc	a, (hl)
      000067 5F                     176 	ld	e, a
      000068 7A                     177 	ld	a, d
      000069 23                     178 	inc	hl
      00006A 9E                     179 	sbc	a, (hl)
      00006B 32                     180 	ld	(hl-), a
      00006C 73                     181 	ld	(hl), e
      00006D                        182 00102$:
                                    183 ;main.c:20: return n;
      00006D F8 02                  184 	ldhl	sp,#2
      00006F 2A                     185 	ld	a, (hl+)
      000070 5F                     186 	ld	e, a
      000071 2A                     187 	ld	a, (hl+)
      000072 57                     188 	ld	d, a
      000073 2A                     189 	ld	a, (hl+)
      000074 66                     190 	ld	h, (hl)
      000075 6F                     191 	ld	l, a
                                    192 ;main.c:21: }
      000076 C9                     193 	ret
                                    194 ;main.c:24: int smoothColor(int i, int x, int y) {	
                                    195 ;	---------------------------------
                                    196 ; Function smoothColor
                                    197 ; ---------------------------------
      000077                        198 _smoothColor::
      000077 E8 F3                  199 	add	sp, #-13
                                    200 ;main.c:25: int out = intMod(i/4, NUM_COLORS)+COLOR_OFFSET;
      000079 F8 0F                  201 	ldhl	sp,#15
      00007B 2A                     202 	ld	a, (hl+)
      00007C 4F                     203 	ld	c, a
      00007D 46                     204 	ld	b, (hl)
      00007E CB 78                  205 	bit	7, b
      000080 28 03                  206 	jr	Z, 00153$
      000082 03                     207 	inc	bc
      000083 03                     208 	inc	bc
      000084 03                     209 	inc	bc
      000085                        210 00153$:
      000085 CB 28                  211 	sra	b
      000087 CB 19                  212 	rr	c
      000089 CB 28                  213 	sra	b
      00008B CB 19                  214 	rr	c
      00008D 21 04 00               215 	ld	hl, #0x0004
      000090 E5                     216 	push	hl
      000091 C5                     217 	push	bc
      000092 CDr00r00               218 	call	_intMod
      000095 E8 04                  219 	add	sp, #4
      000097 F8 0B                  220 	ldhl	sp,	#11
      000099 7B                     221 	ld	a, e
      00009A 22                     222 	ld	(hl+), a
      00009B 72                     223 	ld	(hl), d
                                    224 ;main.c:26: int iModFour = i%4;
      00009C 21 04 00               225 	ld	hl, #0x0004
      00009F E5                     226 	push	hl
      0000A0 F8 11                  227 	ldhl	sp,	#17
      0000A2 2A                     228 	ld	a, (hl+)
      0000A3 66                     229 	ld	h, (hl)
      0000A4 6F                     230 	ld	l, a
      0000A5 E5                     231 	push	hl
      0000A6 CDr00r00               232 	call	__modsint
      0000A9 E8 04                  233 	add	sp, #4
      0000AB 33                     234 	inc	sp
      0000AC 33                     235 	inc	sp
      0000AD D5                     236 	push	de
                                    237 ;main.c:32: if (out > NUM_COLORS+COLOR_OFFSET) {
      0000AE F8 0B                  238 	ldhl	sp,	#11
      0000B0 3E 04                  239 	ld	a, #0x04
      0000B2 96                     240 	sub	a, (hl)
      0000B3 23                     241 	inc	hl
      0000B4 3E 00                  242 	ld	a, #0x00
      0000B6 9E                     243 	sbc	a, (hl)
      0000B7 3E 00                  244 	ld	a, #0x00
      0000B9 57                     245 	ld	d, a
      0000BA CB 7E                  246 	bit	7, (hl)
      0000BC 28 07                  247 	jr	Z, 00274$
      0000BE CB 7A                  248 	bit	7, d
      0000C0 20 08                  249 	jr	NZ, 00275$
      0000C2 BF                     250 	cp	a, a
      0000C3 18 05                  251 	jr	00275$
      0000C5                        252 00274$:
      0000C5 CB 7A                  253 	bit	7, d
      0000C7 28 01                  254 	jr	Z, 00275$
      0000C9 37                     255 	scf
      0000CA                        256 00275$:
      0000CA 3E 00                  257 	ld	a, #0x00
      0000CC 17                     258 	rla
      0000CD F8 02                  259 	ldhl	sp,	#2
      0000CF 77                     260 	ld	(hl), a
                                    261 ;main.c:33: out = out-NUM_COLORS+COLOR_OFFSET;
                                    262 ;c
      0000D0 F8 0B                  263 	ldhl	sp,#11
      0000D2 2A                     264 	ld	a, (hl+)
      0000D3 5F                     265 	ld	e, a
      0000D4 56                     266 	ld	d, (hl)
      0000D5 21 FC FF               267 	ld	hl, #0xfffc
      0000D8 19                     268 	add	hl, de
      0000D9 E5                     269 	push	hl
      0000DA 7D                     270 	ld	a, l
      0000DB F8 05                  271 	ldhl	sp,	#5
      0000DD 77                     272 	ld	(hl), a
      0000DE E1                     273 	pop	hl
      0000DF 7C                     274 	ld	a, h
      0000E0 F8 04                  275 	ldhl	sp,	#4
      0000E2 77                     276 	ld	(hl), a
                                    277 ;main.c:29: switch (iModFour) {
      0000E3 F8 00                  278 	ldhl	sp,	#0
      0000E5 7E                     279 	ld	a, (hl)
      0000E6 B7                     280 	or	a, a
      0000E7 23                     281 	inc	hl
      0000E8 B6                     282 	or	a, (hl)
      0000E9 28 5F                  283 	jr	Z, 00101$
                                    284 ;main.c:38: if (y%2) {
      0000EB 21 02 00               285 	ld	hl, #0x0002
      0000EE E5                     286 	push	hl
      0000EF F8 15                  287 	ldhl	sp,	#21
      0000F1 2A                     288 	ld	a, (hl+)
      0000F2 66                     289 	ld	h, (hl)
      0000F3 6F                     290 	ld	l, a
      0000F4 E5                     291 	push	hl
                                    292 ;main.c:39: if (x%2) {
      0000F5 CDr00r00               293 	call	__modsint
      0000F8 E8 04                  294 	add	sp, #4
      0000FA E5                     295 	push	hl
      0000FB F8 07                  296 	ldhl	sp,	#7
      0000FD 73                     297 	ld	(hl), e
      0000FE F8 08                  298 	ldhl	sp,	#8
      000100 72                     299 	ld	(hl), d
      000101 E1                     300 	pop	hl
      000102 21 02 00               301 	ld	hl, #0x0002
      000105 E5                     302 	push	hl
      000106 F8 13                  303 	ldhl	sp,	#19
      000108 2A                     304 	ld	a, (hl+)
      000109 66                     305 	ld	h, (hl)
      00010A 6F                     306 	ld	l, a
      00010B E5                     307 	push	hl
                                    308 ;main.c:44: ++out;
      00010C CDr00r00               309 	call	__modsint
      00010F E8 04                  310 	add	sp, #4
      000111 E5                     311 	push	hl
      000112 F8 09                  312 	ldhl	sp,	#9
      000114 73                     313 	ld	(hl), e
      000115 F8 0A                  314 	ldhl	sp,	#10
      000117 72                     315 	ld	(hl), d
      000118 E1                     316 	pop	hl
                                    317 ;c
      000119 F8 0B                  318 	ldhl	sp,#11
      00011B 2A                     319 	ld	a, (hl+)
      00011C 5F                     320 	ld	e, a
      00011D 56                     321 	ld	d, (hl)
      00011E 6B                     322 	ld	l, e
      00011F 62                     323 	ld	h, d
      000120 23                     324 	inc	hl
      000121 E5                     325 	push	hl
      000122 7D                     326 	ld	a, l
      000123 F8 0B                  327 	ldhl	sp,	#11
      000125 77                     328 	ld	(hl), a
      000126 E1                     329 	pop	hl
      000127 7C                     330 	ld	a, h
      000128 F8 0A                  331 	ldhl	sp,	#10
      00012A 77                     332 	ld	(hl), a
                                    333 ;main.c:29: switch (iModFour) {
      00012B F8 00                  334 	ldhl	sp,	#0
      00012D 7E                     335 	ld	a, (hl)
      00012E 3D                     336 	dec	a
      00012F 23                     337 	inc	hl
      000130 B6                     338 	or	a, (hl)
      000131 28 2C                  339 	jr	Z, 00104$
      000133 F8 00                  340 	ldhl	sp,	#0
      000135 7E                     341 	ld	a, (hl)
      000136 D6 02                  342 	sub	a, #0x02
      000138 23                     343 	inc	hl
      000139 B6                     344 	or	a, (hl)
      00013A CArC8r01               345 	jp	Z,00117$
      00013D F8 00                  346 	ldhl	sp,	#0
      00013F 7E                     347 	ld	a, (hl)
      000140 D6 03                  348 	sub	a, #0x03
      000142 23                     349 	inc	hl
      000143 B6                     350 	or	a, (hl)
      000144 CAr72r02               351 	jp	Z,00135$
      000147 C3r2Br03               352 	jp	00150$
                                    353 ;main.c:30: case 0:
      00014A                        354 00101$:
                                    355 ;main.c:32: if (out > NUM_COLORS+COLOR_OFFSET) {
      00014A F8 02                  356 	ldhl	sp,	#2
      00014C 7E                     357 	ld	a, (hl)
      00014D B7                     358 	or	a, a
      00014E 28 07                  359 	jr	Z, 00103$
                                    360 ;main.c:33: out = out-NUM_COLORS+COLOR_OFFSET;
      000150 23                     361 	inc	hl
      000151 2A                     362 	ld	a, (hl+)
      000152 5E                     363 	ld	e, (hl)
      000153 F8 0B                  364 	ldhl	sp,	#11
      000155 22                     365 	ld	(hl+), a
      000156 73                     366 	ld	(hl), e
      000157                        367 00103$:
                                    368 ;main.c:35: return out;
      000157 F8 0B                  369 	ldhl	sp,	#11
      000159 2A                     370 	ld	a, (hl+)
      00015A 5F                     371 	ld	e, a
      00015B 56                     372 	ld	d, (hl)
      00015C C3r30r03               373 	jp	00151$
                                    374 ;main.c:36: case 1:
      00015F                        375 00104$:
                                    376 ;main.c:38: if (y%2) {
      00015F F8 06                  377 	ldhl	sp,	#6
      000161 3A                     378 	ld	a, (hl-)
      000162 B6                     379 	or	a, (hl)
      000163 28 4E                  380 	jr	Z, 00115$
                                    381 ;main.c:39: if (x%2) {
      000165 F8 08                  382 	ldhl	sp,	#8
      000167 3A                     383 	ld	a, (hl-)
      000168 B6                     384 	or	a, (hl)
      000169 28 0F                  385 	jr	Z, 00110$
                                    386 ;main.c:40: if (out > NUM_COLORS+COLOR_OFFSET) {
      00016B F8 02                  387 	ldhl	sp,	#2
      00016D 7E                     388 	ld	a, (hl)
      00016E B7                     389 	or	a, a
      00016F 28 4F                  390 	jr	Z, 00116$
                                    391 ;main.c:41: out = out-NUM_COLORS+COLOR_OFFSET;
      000171 23                     392 	inc	hl
      000172 2A                     393 	ld	a, (hl+)
      000173 5E                     394 	ld	e, (hl)
      000174 F8 0B                  395 	ldhl	sp,	#11
      000176 22                     396 	ld	(hl+), a
      000177 73                     397 	ld	(hl), e
      000178 18 46                  398 	jr	00116$
      00017A                        399 00110$:
                                    400 ;main.c:44: ++out;
      00017A F8 09                  401 	ldhl	sp,	#9
      00017C 2A                     402 	ld	a, (hl+)
      00017D 5E                     403 	ld	e, (hl)
      00017E 23                     404 	inc	hl
      00017F 22                     405 	ld	(hl+), a
                                    406 ;main.c:45: if (out > NUM_COLORS+COLOR_OFFSET) {
      000180 7B                     407 	ld	a, e
      000181 32                     408 	ld	(hl-), a
      000182 3E 04                  409 	ld	a, #0x04
      000184 96                     410 	sub	a, (hl)
      000185 23                     411 	inc	hl
      000186 3E 00                  412 	ld	a, #0x00
      000188 9E                     413 	sbc	a, (hl)
      000189 3E 00                  414 	ld	a, #0x00
      00018B 57                     415 	ld	d, a
      00018C CB 7E                  416 	bit	7, (hl)
      00018E 28 07                  417 	jr	Z, 00280$
      000190 CB 7A                  418 	bit	7, d
      000192 20 08                  419 	jr	NZ, 00281$
      000194 BF                     420 	cp	a, a
      000195 18 05                  421 	jr	00281$
      000197                        422 00280$:
      000197 CB 7A                  423 	bit	7, d
      000199 28 01                  424 	jr	Z, 00281$
      00019B 37                     425 	scf
      00019C                        426 00281$:
      00019C 30 22                  427 	jr	NC, 00116$
                                    428 ;main.c:46: out = out-NUM_COLORS+COLOR_OFFSET;
                                    429 ;c
      00019E F8 0B                  430 	ldhl	sp,#11
      0001A0 2A                     431 	ld	a, (hl+)
      0001A1 5F                     432 	ld	e, a
      0001A2 56                     433 	ld	d, (hl)
      0001A3 21 FC FF               434 	ld	hl, #0xfffc
      0001A6 19                     435 	add	hl, de
      0001A7 E5                     436 	push	hl
      0001A8 7D                     437 	ld	a, l
      0001A9 F8 0D                  438 	ldhl	sp,	#13
      0001AB 77                     439 	ld	(hl), a
      0001AC E1                     440 	pop	hl
      0001AD 7C                     441 	ld	a, h
      0001AE F8 0C                  442 	ldhl	sp,	#12
      0001B0 77                     443 	ld	(hl), a
      0001B1 18 0D                  444 	jr	00116$
      0001B3                        445 00115$:
                                    446 ;main.c:50: if (out > NUM_COLORS+COLOR_OFFSET) {
      0001B3 F8 02                  447 	ldhl	sp,	#2
      0001B5 7E                     448 	ld	a, (hl)
      0001B6 B7                     449 	or	a, a
      0001B7 28 07                  450 	jr	Z, 00116$
                                    451 ;main.c:51: out = out-NUM_COLORS+COLOR_OFFSET;
      0001B9 23                     452 	inc	hl
      0001BA 2A                     453 	ld	a, (hl+)
      0001BB 5E                     454 	ld	e, (hl)
      0001BC F8 0B                  455 	ldhl	sp,	#11
      0001BE 22                     456 	ld	(hl+), a
      0001BF 73                     457 	ld	(hl), e
      0001C0                        458 00116$:
                                    459 ;main.c:55: return out;
      0001C0 F8 0B                  460 	ldhl	sp,	#11
      0001C2 2A                     461 	ld	a, (hl+)
      0001C3 5F                     462 	ld	e, a
      0001C4 56                     463 	ld	d, (hl)
      0001C5 C3r30r03               464 	jp	00151$
                                    465 ;main.c:56: case 2:
      0001C8                        466 00117$:
                                    467 ;main.c:58: if (y%2) {
      0001C8 F8 06                  468 	ldhl	sp,	#6
      0001CA 3A                     469 	ld	a, (hl-)
      0001CB B6                     470 	or	a, (hl)
      0001CC 28 50                  471 	jr	Z, 00133$
                                    472 ;main.c:59: if (x%2) {
      0001CE F8 08                  473 	ldhl	sp,	#8
      0001D0 3A                     474 	ld	a, (hl-)
      0001D1 B6                     475 	or	a, (hl)
      0001D2 28 11                  476 	jr	Z, 00123$
                                    477 ;main.c:60: if (out > NUM_COLORS+COLOR_OFFSET) {
      0001D4 F8 02                  478 	ldhl	sp,	#2
      0001D6 7E                     479 	ld	a, (hl)
      0001D7 B7                     480 	or	a, a
      0001D8 CAr6Ar02               481 	jp	Z, 00134$
                                    482 ;main.c:61: out = out-NUM_COLORS+COLOR_OFFSET;
      0001DB 23                     483 	inc	hl
      0001DC 2A                     484 	ld	a, (hl+)
      0001DD 5E                     485 	ld	e, (hl)
      0001DE F8 0B                  486 	ldhl	sp,	#11
      0001E0 22                     487 	ld	(hl+), a
      0001E1 73                     488 	ld	(hl), e
      0001E2 C3r6Ar02               489 	jp	00134$
      0001E5                        490 00123$:
                                    491 ;main.c:64: ++out;
      0001E5 F8 09                  492 	ldhl	sp,	#9
      0001E7 2A                     493 	ld	a, (hl+)
      0001E8 5E                     494 	ld	e, (hl)
      0001E9 23                     495 	inc	hl
      0001EA 22                     496 	ld	(hl+), a
                                    497 ;main.c:65: if (out > NUM_COLORS+COLOR_OFFSET) {
      0001EB 7B                     498 	ld	a, e
      0001EC 32                     499 	ld	(hl-), a
      0001ED 3E 04                  500 	ld	a, #0x04
      0001EF 96                     501 	sub	a, (hl)
      0001F0 23                     502 	inc	hl
      0001F1 3E 00                  503 	ld	a, #0x00
      0001F3 9E                     504 	sbc	a, (hl)
      0001F4 3E 00                  505 	ld	a, #0x00
      0001F6 57                     506 	ld	d, a
      0001F7 CB 7E                  507 	bit	7, (hl)
      0001F9 28 07                  508 	jr	Z, 00282$
      0001FB CB 7A                  509 	bit	7, d
      0001FD 20 08                  510 	jr	NZ, 00283$
      0001FF BF                     511 	cp	a, a
      000200 18 05                  512 	jr	00283$
      000202                        513 00282$:
      000202 CB 7A                  514 	bit	7, d
      000204 28 01                  515 	jr	Z, 00283$
      000206 37                     516 	scf
      000207                        517 00283$:
      000207 30 61                  518 	jr	NC, 00134$
                                    519 ;main.c:66: out = out-NUM_COLORS+COLOR_OFFSET;
                                    520 ;c
      000209 F8 0B                  521 	ldhl	sp,#11
      00020B 2A                     522 	ld	a, (hl+)
      00020C 5F                     523 	ld	e, a
      00020D 56                     524 	ld	d, (hl)
      00020E 21 FC FF               525 	ld	hl, #0xfffc
      000211 19                     526 	add	hl, de
      000212 E5                     527 	push	hl
      000213 7D                     528 	ld	a, l
      000214 F8 0D                  529 	ldhl	sp,	#13
      000216 77                     530 	ld	(hl), a
      000217 E1                     531 	pop	hl
      000218 7C                     532 	ld	a, h
      000219 F8 0C                  533 	ldhl	sp,	#12
      00021B 77                     534 	ld	(hl), a
      00021C 18 4C                  535 	jr	00134$
      00021E                        536 00133$:
                                    537 ;main.c:70: if (x%2) {
      00021E F8 08                  538 	ldhl	sp,	#8
      000220 3A                     539 	ld	a, (hl-)
      000221 B6                     540 	or	a, (hl)
      000222 28 39                  541 	jr	Z, 00130$
                                    542 ;main.c:71: ++out;
      000224 23                     543 	inc	hl
      000225 23                     544 	inc	hl
      000226 2A                     545 	ld	a, (hl+)
      000227 5E                     546 	ld	e, (hl)
      000228 23                     547 	inc	hl
      000229 22                     548 	ld	(hl+), a
                                    549 ;main.c:72: if (out > NUM_COLORS+COLOR_OFFSET) {
      00022A 7B                     550 	ld	a, e
      00022B 32                     551 	ld	(hl-), a
      00022C 3E 04                  552 	ld	a, #0x04
      00022E 96                     553 	sub	a, (hl)
      00022F 23                     554 	inc	hl
      000230 3E 00                  555 	ld	a, #0x00
      000232 9E                     556 	sbc	a, (hl)
      000233 3E 00                  557 	ld	a, #0x00
      000235 57                     558 	ld	d, a
      000236 CB 7E                  559 	bit	7, (hl)
      000238 28 07                  560 	jr	Z, 00284$
      00023A CB 7A                  561 	bit	7, d
      00023C 20 08                  562 	jr	NZ, 00285$
      00023E BF                     563 	cp	a, a
      00023F 18 05                  564 	jr	00285$
      000241                        565 00284$:
      000241 CB 7A                  566 	bit	7, d
      000243 28 01                  567 	jr	Z, 00285$
      000245 37                     568 	scf
      000246                        569 00285$:
      000246 30 22                  570 	jr	NC, 00134$
                                    571 ;main.c:73: out = out-NUM_COLORS+COLOR_OFFSET;
                                    572 ;c
      000248 F8 0B                  573 	ldhl	sp,#11
      00024A 2A                     574 	ld	a, (hl+)
      00024B 5F                     575 	ld	e, a
      00024C 56                     576 	ld	d, (hl)
      00024D 21 FC FF               577 	ld	hl, #0xfffc
      000250 19                     578 	add	hl, de
      000251 E5                     579 	push	hl
      000252 7D                     580 	ld	a, l
      000253 F8 0D                  581 	ldhl	sp,	#13
      000255 77                     582 	ld	(hl), a
      000256 E1                     583 	pop	hl
      000257 7C                     584 	ld	a, h
      000258 F8 0C                  585 	ldhl	sp,	#12
      00025A 77                     586 	ld	(hl), a
      00025B 18 0D                  587 	jr	00134$
      00025D                        588 00130$:
                                    589 ;main.c:76: if (out > NUM_COLORS+COLOR_OFFSET) {
      00025D F8 02                  590 	ldhl	sp,	#2
      00025F 7E                     591 	ld	a, (hl)
      000260 B7                     592 	or	a, a
      000261 28 07                  593 	jr	Z, 00134$
                                    594 ;main.c:77: out = out-NUM_COLORS+COLOR_OFFSET;
      000263 23                     595 	inc	hl
      000264 2A                     596 	ld	a, (hl+)
      000265 5E                     597 	ld	e, (hl)
      000266 F8 0B                  598 	ldhl	sp,	#11
      000268 22                     599 	ld	(hl+), a
      000269 73                     600 	ld	(hl), e
      00026A                        601 00134$:
                                    602 ;main.c:82: return out;
      00026A F8 0B                  603 	ldhl	sp,	#11
      00026C 2A                     604 	ld	a, (hl+)
      00026D 5F                     605 	ld	e, a
      00026E 56                     606 	ld	d, (hl)
      00026F C3r30r03               607 	jp	00151$
                                    608 ;main.c:83: case 3:
      000272                        609 00135$:
                                    610 ;main.c:85: if (y%2) {
      000272 F8 06                  611 	ldhl	sp,	#6
      000274 3A                     612 	ld	a, (hl-)
      000275 B6                     613 	or	a, (hl)
      000276 28 56                  614 	jr	Z, 00146$
                                    615 ;main.c:86: if (x%2) {
      000278 F8 08                  616 	ldhl	sp,	#8
      00027A 3A                     617 	ld	a, (hl-)
      00027B B6                     618 	or	a, (hl)
      00027C 28 37                  619 	jr	Z, 00141$
                                    620 ;main.c:87: ++out;
      00027E 23                     621 	inc	hl
      00027F 23                     622 	inc	hl
      000280 2A                     623 	ld	a, (hl+)
      000281 5E                     624 	ld	e, (hl)
      000282 23                     625 	inc	hl
      000283 22                     626 	ld	(hl+), a
                                    627 ;main.c:88: if (out > NUM_COLORS+COLOR_OFFSET) {
      000284 7B                     628 	ld	a, e
      000285 32                     629 	ld	(hl-), a
      000286 3E 04                  630 	ld	a, #0x04
      000288 96                     631 	sub	a, (hl)
      000289 23                     632 	inc	hl
      00028A 3E 00                  633 	ld	a, #0x00
      00028C 9E                     634 	sbc	a, (hl)
      00028D 3E 00                  635 	ld	a, #0x00
      00028F 57                     636 	ld	d, a
      000290 CB 7E                  637 	bit	7, (hl)
      000292 28 07                  638 	jr	Z, 00286$
      000294 CB 7A                  639 	bit	7, d
      000296 20 08                  640 	jr	NZ, 00287$
      000298 BF                     641 	cp	a, a
      000299 18 05                  642 	jr	00287$
      00029B                        643 00286$:
      00029B CB 7A                  644 	bit	7, d
      00029D 28 01                  645 	jr	Z, 00287$
      00029F 37                     646 	scf
      0002A0                        647 00287$:
      0002A0 30 61                  648 	jr	NC, 00147$
                                    649 ;main.c:89: out = out-NUM_COLORS;
      0002A2 F8 0B                  650 	ldhl	sp,#11
      0002A4 2A                     651 	ld	a, (hl+)
      0002A5 5F                     652 	ld	e, a
      0002A6 56                     653 	ld	d, (hl)
      0002A7 21 04 00               654 	ld	hl, #0x0004
      0002AA 7B                     655 	ld	a, e
      0002AB 95                     656 	sub	a, l
      0002AC 5F                     657 	ld	e, a
      0002AD 7A                     658 	ld	a, d
      0002AE 9C                     659 	sbc	a, h
      0002AF F8 0C                  660 	ldhl	sp,	#12
      0002B1 32                     661 	ld	(hl-), a
      0002B2 73                     662 	ld	(hl), e
      0002B3 18 4E                  663 	jr	00147$
      0002B5                        664 00141$:
                                    665 ;main.c:92: if (out > NUM_COLORS+COLOR_OFFSET) {
      0002B5 F8 02                  666 	ldhl	sp,	#2
      0002B7 7E                     667 	ld	a, (hl)
      0002B8 B7                     668 	or	a, a
      0002B9 28 48                  669 	jr	Z, 00147$
                                    670 ;main.c:93: out = out-NUM_COLORS;
      0002BB F8 0B                  671 	ldhl	sp,#11
      0002BD 2A                     672 	ld	a, (hl+)
      0002BE 5F                     673 	ld	e, a
      0002BF 56                     674 	ld	d, (hl)
      0002C0 21 04 00               675 	ld	hl, #0x0004
      0002C3 7B                     676 	ld	a, e
      0002C4 95                     677 	sub	a, l
      0002C5 5F                     678 	ld	e, a
      0002C6 7A                     679 	ld	a, d
      0002C7 9C                     680 	sbc	a, h
      0002C8 F8 0C                  681 	ldhl	sp,	#12
      0002CA 32                     682 	ld	(hl-), a
      0002CB 73                     683 	ld	(hl), e
      0002CC 18 35                  684 	jr	00147$
      0002CE                        685 00146$:
                                    686 ;main.c:97: ++out;
      0002CE F8 09                  687 	ldhl	sp,	#9
      0002D0 2A                     688 	ld	a, (hl+)
      0002D1 5E                     689 	ld	e, (hl)
      0002D2 23                     690 	inc	hl
      0002D3 22                     691 	ld	(hl+), a
                                    692 ;main.c:98: if (out > NUM_COLORS+COLOR_OFFSET) {
      0002D4 7B                     693 	ld	a, e
      0002D5 32                     694 	ld	(hl-), a
      0002D6 3E 04                  695 	ld	a, #0x04
      0002D8 96                     696 	sub	a, (hl)
      0002D9 23                     697 	inc	hl
      0002DA 3E 00                  698 	ld	a, #0x00
      0002DC 9E                     699 	sbc	a, (hl)
      0002DD 3E 00                  700 	ld	a, #0x00
      0002DF 57                     701 	ld	d, a
      0002E0 CB 7E                  702 	bit	7, (hl)
      0002E2 28 07                  703 	jr	Z, 00288$
      0002E4 CB 7A                  704 	bit	7, d
      0002E6 20 08                  705 	jr	NZ, 00289$
      0002E8 BF                     706 	cp	a, a
      0002E9 18 05                  707 	jr	00289$
      0002EB                        708 00288$:
      0002EB CB 7A                  709 	bit	7, d
      0002ED 28 01                  710 	jr	Z, 00289$
      0002EF 37                     711 	scf
      0002F0                        712 00289$:
      0002F0 30 11                  713 	jr	NC, 00147$
                                    714 ;main.c:99: out = out-NUM_COLORS;
      0002F2 F8 0B                  715 	ldhl	sp,#11
      0002F4 2A                     716 	ld	a, (hl+)
      0002F5 5F                     717 	ld	e, a
      0002F6 56                     718 	ld	d, (hl)
      0002F7 21 04 00               719 	ld	hl, #0x0004
      0002FA 7B                     720 	ld	a, e
      0002FB 95                     721 	sub	a, l
      0002FC 5F                     722 	ld	e, a
      0002FD 7A                     723 	ld	a, d
      0002FE 9C                     724 	sbc	a, h
      0002FF F8 0C                  725 	ldhl	sp,	#12
      000301 32                     726 	ld	(hl-), a
      000302 73                     727 	ld	(hl), e
      000303                        728 00147$:
                                    729 ;main.c:103: if (out < COLOR_OFFSET) {
      000303 F8 0B                  730 	ldhl	sp,	#11
      000305 7E                     731 	ld	a, (hl)
      000306 D6 00                  732 	sub	a, #0x00
      000308 23                     733 	inc	hl
      000309 7E                     734 	ld	a, (hl)
      00030A DE 00                  735 	sbc	a, #0x00
      00030C 56                     736 	ld	d, (hl)
      00030D 3E 00                  737 	ld	a, #0x00
      00030F CB 7F                  738 	bit	7,a
      000311 28 07                  739 	jr	Z, 00290$
      000313 CB 7A                  740 	bit	7, d
      000315 20 08                  741 	jr	NZ, 00291$
      000317 BF                     742 	cp	a, a
      000318 18 05                  743 	jr	00291$
      00031A                        744 00290$:
      00031A CB 7A                  745 	bit	7, d
      00031C 28 01                  746 	jr	Z, 00291$
      00031E 37                     747 	scf
      00031F                        748 00291$:
      00031F 30 0A                  749 	jr	NC, 00150$
                                    750 ;main.c:104: out = out-1;
      000321 F8 0B                  751 	ldhl	sp,#11
      000323 2A                     752 	ld	a, (hl+)
      000324 5F                     753 	ld	e, a
      000325 56                     754 	ld	d, (hl)
      000326 1B                     755 	dec	de
      000327 2B                     756 	dec	hl
      000328 7B                     757 	ld	a, e
      000329 22                     758 	ld	(hl+), a
      00032A 72                     759 	ld	(hl), d
                                    760 ;main.c:106: }
      00032B                        761 00150$:
                                    762 ;main.c:107: return out;
      00032B F8 0B                  763 	ldhl	sp,	#11
      00032D 2A                     764 	ld	a, (hl+)
      00032E 5F                     765 	ld	e, a
      00032F 56                     766 	ld	d, (hl)
      000330                        767 00151$:
                                    768 ;main.c:108: }
      000330 E8 0D                  769 	add	sp, #13
      000332 C9                     770 	ret
                                    771 ;main.c:114: long mapRange(long a1, long a2, long b1, long b2, long s) {
                                    772 ;	---------------------------------
                                    773 ; Function mapRange
                                    774 ; ---------------------------------
      000333                        775 _mapRange::
      000333 E8 F8                  776 	add	sp, #-8
                                    777 ;main.c:115: return b1 + (s - a1) * (b2 - b1) / (a2 - a1);
      000335 F8 1A                  778 	ldhl	sp,#26
      000337 2A                     779 	ld	a, (hl+)
      000338 5F                     780 	ld	e, a
      000339 56                     781 	ld	d, (hl)
      00033A 7B                     782 	ld	a, e
      00033B F8 0A                  783 	ldhl	sp,	#10
      00033D 96                     784 	sub	a, (hl)
      00033E 5F                     785 	ld	e, a
      00033F 7A                     786 	ld	a, d
      000340 23                     787 	inc	hl
      000341 9E                     788 	sbc	a, (hl)
      000342 F5                     789 	push	af
      000343 F8 03                  790 	ldhl	sp,	#3
      000345 32                     791 	ld	(hl-), a
      000346 73                     792 	ld	(hl), e
      000347 F8 1E                  793 	ldhl	sp,#30
      000349 2A                     794 	ld	a, (hl+)
      00034A 5F                     795 	ld	e, a
      00034B 56                     796 	ld	d, (hl)
      00034C F8 0E                  797 	ldhl	sp,	#14
      00034E F1                     798 	pop	af
      00034F 7B                     799 	ld	a, e
      000350 9E                     800 	sbc	a, (hl)
      000351 5F                     801 	ld	e, a
      000352 7A                     802 	ld	a, d
      000353 23                     803 	inc	hl
      000354 9E                     804 	sbc	a, (hl)
      000355 F8 03                  805 	ldhl	sp,	#3
      000357 32                     806 	ld	(hl-), a
      000358 73                     807 	ld	(hl), e
      000359 F8 16                  808 	ldhl	sp,#22
      00035B 2A                     809 	ld	a, (hl+)
      00035C 5F                     810 	ld	e, a
      00035D 56                     811 	ld	d, (hl)
      00035E 7B                     812 	ld	a, e
      00035F F8 12                  813 	ldhl	sp,	#18
      000361 96                     814 	sub	a, (hl)
      000362 5F                     815 	ld	e, a
      000363 7A                     816 	ld	a, d
      000364 23                     817 	inc	hl
      000365 9E                     818 	sbc	a, (hl)
      000366 F5                     819 	push	af
      000367 F8 07                  820 	ldhl	sp,	#7
      000369 32                     821 	ld	(hl-), a
      00036A 73                     822 	ld	(hl), e
      00036B F8 1A                  823 	ldhl	sp,#26
      00036D 2A                     824 	ld	a, (hl+)
      00036E 5F                     825 	ld	e, a
      00036F 56                     826 	ld	d, (hl)
      000370 F8 16                  827 	ldhl	sp,	#22
      000372 F1                     828 	pop	af
      000373 7B                     829 	ld	a, e
      000374 9E                     830 	sbc	a, (hl)
      000375 5F                     831 	ld	e, a
      000376 7A                     832 	ld	a, d
      000377 23                     833 	inc	hl
      000378 9E                     834 	sbc	a, (hl)
      000379 F8 07                  835 	ldhl	sp,	#7
      00037B 32                     836 	ld	(hl-), a
      00037C 73                     837 	ld	(hl), e
      00037D 2A                     838 	ld	a, (hl+)
      00037E 66                     839 	ld	h, (hl)
      00037F 6F                     840 	ld	l, a
      000380 E5                     841 	push	hl
      000381 F8 06                  842 	ldhl	sp,	#6
      000383 2A                     843 	ld	a, (hl+)
      000384 66                     844 	ld	h, (hl)
      000385 6F                     845 	ld	l, a
      000386 E5                     846 	push	hl
      000387 F8 06                  847 	ldhl	sp,	#6
      000389 2A                     848 	ld	a, (hl+)
      00038A 66                     849 	ld	h, (hl)
      00038B 6F                     850 	ld	l, a
      00038C E5                     851 	push	hl
      00038D F8 06                  852 	ldhl	sp,	#6
      00038F 2A                     853 	ld	a, (hl+)
      000390 66                     854 	ld	h, (hl)
      000391 6F                     855 	ld	l, a
      000392 E5                     856 	push	hl
      000393 CDr00r00               857 	call	__mullong
      000396 E8 08                  858 	add	sp, #8
      000398 33                     859 	inc	sp
      000399 33                     860 	inc	sp
      00039A D5                     861 	push	de
      00039B E5                     862 	push	hl
      00039C 7D                     863 	ld	a, l
      00039D F8 04                  864 	ldhl	sp,	#4
      00039F 77                     865 	ld	(hl), a
      0003A0 E1                     866 	pop	hl
      0003A1 7C                     867 	ld	a, h
      0003A2 F8 03                  868 	ldhl	sp,	#3
      0003A4 77                     869 	ld	(hl), a
      0003A5 F8 0E                  870 	ldhl	sp,#14
      0003A7 2A                     871 	ld	a, (hl+)
      0003A8 5F                     872 	ld	e, a
      0003A9 56                     873 	ld	d, (hl)
      0003AA 7B                     874 	ld	a, e
      0003AB F8 0A                  875 	ldhl	sp,	#10
      0003AD 96                     876 	sub	a, (hl)
      0003AE 5F                     877 	ld	e, a
      0003AF 7A                     878 	ld	a, d
      0003B0 23                     879 	inc	hl
      0003B1 9E                     880 	sbc	a, (hl)
      0003B2 F5                     881 	push	af
      0003B3 F8 07                  882 	ldhl	sp,	#7
      0003B5 32                     883 	ld	(hl-), a
      0003B6 73                     884 	ld	(hl), e
      0003B7 F8 12                  885 	ldhl	sp,#18
      0003B9 2A                     886 	ld	a, (hl+)
      0003BA 5F                     887 	ld	e, a
      0003BB 56                     888 	ld	d, (hl)
      0003BC F8 0E                  889 	ldhl	sp,	#14
      0003BE F1                     890 	pop	af
      0003BF 7B                     891 	ld	a, e
      0003C0 9E                     892 	sbc	a, (hl)
      0003C1 5F                     893 	ld	e, a
      0003C2 7A                     894 	ld	a, d
      0003C3 23                     895 	inc	hl
      0003C4 9E                     896 	sbc	a, (hl)
      0003C5 F8 07                  897 	ldhl	sp,	#7
      0003C7 32                     898 	ld	(hl-), a
      0003C8 73                     899 	ld	(hl), e
      0003C9 2A                     900 	ld	a, (hl+)
      0003CA 66                     901 	ld	h, (hl)
      0003CB 6F                     902 	ld	l, a
      0003CC E5                     903 	push	hl
      0003CD F8 06                  904 	ldhl	sp,	#6
      0003CF 2A                     905 	ld	a, (hl+)
      0003D0 66                     906 	ld	h, (hl)
      0003D1 6F                     907 	ld	l, a
      0003D2 E5                     908 	push	hl
      0003D3 F8 06                  909 	ldhl	sp,	#6
      0003D5 2A                     910 	ld	a, (hl+)
      0003D6 66                     911 	ld	h, (hl)
      0003D7 6F                     912 	ld	l, a
      0003D8 E5                     913 	push	hl
      0003D9 F8 06                  914 	ldhl	sp,	#6
      0003DB 2A                     915 	ld	a, (hl+)
      0003DC 66                     916 	ld	h, (hl)
      0003DD 6F                     917 	ld	l, a
      0003DE E5                     918 	push	hl
      0003DF CDr00r00               919 	call	__divslong
      0003E2 E8 08                  920 	add	sp, #8
      0003E4 33                     921 	inc	sp
      0003E5 33                     922 	inc	sp
      0003E6 D5                     923 	push	de
      0003E7 E5                     924 	push	hl
      0003E8 7D                     925 	ld	a, l
      0003E9 F8 04                  926 	ldhl	sp,	#4
      0003EB 77                     927 	ld	(hl), a
      0003EC E1                     928 	pop	hl
      0003ED 7C                     929 	ld	a, h
      0003EE F8 03                  930 	ldhl	sp,	#3
      0003F0 77                     931 	ld	(hl), a
      0003F1 F8 12                  932 	ldhl	sp,#18
      0003F3 2A                     933 	ld	a, (hl+)
      0003F4 5F                     934 	ld	e, a
      0003F5 56                     935 	ld	d, (hl)
      0003F6 7B                     936 	ld	a, e
      0003F7 F8 00                  937 	ldhl	sp,	#0
      0003F9 86                     938 	add	a, (hl)
      0003FA 5F                     939 	ld	e, a
      0003FB 7A                     940 	ld	a, d
      0003FC 23                     941 	inc	hl
      0003FD 8E                     942 	adc	a, (hl)
      0003FE F5                     943 	push	af
      0003FF F8 07                  944 	ldhl	sp,	#7
      000401 32                     945 	ld	(hl-), a
      000402 73                     946 	ld	(hl), e
      000403 F8 16                  947 	ldhl	sp,#22
      000405 2A                     948 	ld	a, (hl+)
      000406 5F                     949 	ld	e, a
      000407 56                     950 	ld	d, (hl)
      000408 F8 04                  951 	ldhl	sp,	#4
      00040A F1                     952 	pop	af
      00040B 7B                     953 	ld	a, e
      00040C 8E                     954 	adc	a, (hl)
      00040D 5F                     955 	ld	e, a
      00040E 7A                     956 	ld	a, d
      00040F 23                     957 	inc	hl
      000410 8E                     958 	adc	a, (hl)
      000411 F8 07                  959 	ldhl	sp,	#7
      000413 32                     960 	ld	(hl-), a
      000414 7B                     961 	ld	a, e
      000415 32                     962 	ld	(hl-), a
      000416 2B                     963 	dec	hl
      000417 2A                     964 	ld	a, (hl+)
      000418 5F                     965 	ld	e, a
      000419 2A                     966 	ld	a, (hl+)
      00041A 57                     967 	ld	d, a
      00041B 2A                     968 	ld	a, (hl+)
      00041C 66                     969 	ld	h, (hl)
      00041D 6F                     970 	ld	l, a
                                    971 ;main.c:116: }
      00041E E8 08                  972 	add	sp, #8
      000420 C9                     973 	ret
                                    974 ;main.c:119: long funcX(long function, long zx, long zy, long cx) {
                                    975 ;	---------------------------------
                                    976 ; Function funcX
                                    977 ; ---------------------------------
      000421                        978 _funcX::
      000421 E8 E8                  979 	add	sp, #-24
                                    980 ;main.c:122: return ((zx*zx - zy*zy)/factor + cx);
      000423 F8 20                  981 	ldhl	sp,	#32
      000425 2A                     982 	ld	a, (hl+)
      000426 66                     983 	ld	h, (hl)
      000427 6F                     984 	ld	l, a
      000428 E5                     985 	push	hl
      000429 F8 20                  986 	ldhl	sp,	#32
      00042B 2A                     987 	ld	a, (hl+)
      00042C 66                     988 	ld	h, (hl)
      00042D 6F                     989 	ld	l, a
      00042E E5                     990 	push	hl
      00042F F8 24                  991 	ldhl	sp,	#36
      000431 2A                     992 	ld	a, (hl+)
      000432 66                     993 	ld	h, (hl)
      000433 6F                     994 	ld	l, a
      000434 E5                     995 	push	hl
      000435 F8 24                  996 	ldhl	sp,	#36
      000437 2A                     997 	ld	a, (hl+)
      000438 66                     998 	ld	h, (hl)
      000439 6F                     999 	ld	l, a
      00043A E5                    1000 	push	hl
      00043B CDr00r00              1001 	call	__mullong
      00043E E8 08                 1002 	add	sp, #8
      000440 33                    1003 	inc	sp
      000441 33                    1004 	inc	sp
      000442 D5                    1005 	push	de
      000443 E5                    1006 	push	hl
      000444 7D                    1007 	ld	a, l
      000445 F8 04                 1008 	ldhl	sp,	#4
      000447 77                    1009 	ld	(hl), a
      000448 E1                    1010 	pop	hl
      000449 7C                    1011 	ld	a, h
      00044A F8 03                 1012 	ldhl	sp,	#3
      00044C 77                    1013 	ld	(hl), a
      00044D F8 24                 1014 	ldhl	sp,	#36
      00044F 2A                    1015 	ld	a, (hl+)
      000450 66                    1016 	ld	h, (hl)
      000451 6F                    1017 	ld	l, a
      000452 E5                    1018 	push	hl
      000453 F8 24                 1019 	ldhl	sp,	#36
      000455 2A                    1020 	ld	a, (hl+)
      000456 66                    1021 	ld	h, (hl)
      000457 6F                    1022 	ld	l, a
      000458 E5                    1023 	push	hl
      000459 F8 28                 1024 	ldhl	sp,	#40
      00045B 2A                    1025 	ld	a, (hl+)
      00045C 66                    1026 	ld	h, (hl)
      00045D 6F                    1027 	ld	l, a
      00045E E5                    1028 	push	hl
      00045F F8 28                 1029 	ldhl	sp,	#40
      000461 2A                    1030 	ld	a, (hl+)
      000462 66                    1031 	ld	h, (hl)
      000463 6F                    1032 	ld	l, a
      000464 E5                    1033 	push	hl
      000465 CDr00r00              1034 	call	__mullong
      000468 E8 08                 1035 	add	sp, #8
      00046A E5                    1036 	push	hl
      00046B F8 06                 1037 	ldhl	sp,	#6
      00046D 73                    1038 	ld	(hl), e
      00046E F8 07                 1039 	ldhl	sp,	#7
      000470 72                    1040 	ld	(hl), d
      000471 E1                    1041 	pop	hl
      000472 E5                    1042 	push	hl
      000473 7D                    1043 	ld	a, l
      000474 F8 08                 1044 	ldhl	sp,	#8
      000476 77                    1045 	ld	(hl), a
      000477 E1                    1046 	pop	hl
      000478 7C                    1047 	ld	a, h
      000479 F8 07                 1048 	ldhl	sp,	#7
      00047B 77                    1049 	ld	(hl), a
      00047C FAr10r00              1050 	ld	a, (#_factor)
      00047F F8 08                 1051 	ldhl	sp,	#8
      000481 77                    1052 	ld	(hl), a
      000482 FAr11r00              1053 	ld	a, (#_factor + 1)
      000485 F8 09                 1054 	ldhl	sp,	#9
      000487 77                    1055 	ld	(hl), a
      000488 17                    1056 	rla
      000489 9F                    1057 	sbc	a, a
      00048A 23                    1058 	inc	hl
      00048B 22                    1059 	ld	(hl+), a
      00048C 77                    1060 	ld	(hl), a
      00048D D1                    1061 	pop	de
      00048E D5                    1062 	push	de
      00048F 7B                    1063 	ld	a, e
      000490 F8 04                 1064 	ldhl	sp,	#4
      000492 96                    1065 	sub	a, (hl)
      000493 5F                    1066 	ld	e, a
      000494 7A                    1067 	ld	a, d
      000495 23                    1068 	inc	hl
      000496 9E                    1069 	sbc	a, (hl)
      000497 F5                    1070 	push	af
      000498 F8 17                 1071 	ldhl	sp,	#23
      00049A 32                    1072 	ld	(hl-), a
      00049B 73                    1073 	ld	(hl), e
      00049C F8 04                 1074 	ldhl	sp,#4
      00049E 2A                    1075 	ld	a, (hl+)
      00049F 5F                    1076 	ld	e, a
      0004A0 56                    1077 	ld	d, (hl)
      0004A1 F8 08                 1078 	ldhl	sp,	#8
      0004A3 F1                    1079 	pop	af
      0004A4 7B                    1080 	ld	a, e
      0004A5 9E                    1081 	sbc	a, (hl)
      0004A6 5F                    1082 	ld	e, a
      0004A7 7A                    1083 	ld	a, d
      0004A8 23                    1084 	inc	hl
      0004A9 9E                    1085 	sbc	a, (hl)
      0004AA F8 17                 1086 	ldhl	sp,	#23
      0004AC 32                    1087 	ld	(hl-), a
      0004AD 73                    1088 	ld	(hl), e
      0004AE F8 0A                 1089 	ldhl	sp,	#10
      0004B0 2A                    1090 	ld	a, (hl+)
      0004B1 66                    1091 	ld	h, (hl)
      0004B2 6F                    1092 	ld	l, a
      0004B3 E5                    1093 	push	hl
      0004B4 F8 0A                 1094 	ldhl	sp,	#10
      0004B6 2A                    1095 	ld	a, (hl+)
      0004B7 66                    1096 	ld	h, (hl)
      0004B8 6F                    1097 	ld	l, a
      0004B9 E5                    1098 	push	hl
      0004BA F8 1A                 1099 	ldhl	sp,	#26
      0004BC 2A                    1100 	ld	a, (hl+)
      0004BD 66                    1101 	ld	h, (hl)
      0004BE 6F                    1102 	ld	l, a
      0004BF E5                    1103 	push	hl
      0004C0 F8 1A                 1104 	ldhl	sp,	#26
      0004C2 2A                    1105 	ld	a, (hl+)
      0004C3 66                    1106 	ld	h, (hl)
      0004C4 6F                    1107 	ld	l, a
      0004C5 E5                    1108 	push	hl
      0004C6 CDr00r00              1109 	call	__divslong
      0004C9 E8 08                 1110 	add	sp, #8
      0004CB E5                    1111 	push	hl
      0004CC F8 12                 1112 	ldhl	sp,	#18
      0004CE 73                    1113 	ld	(hl), e
      0004CF F8 13                 1114 	ldhl	sp,	#19
      0004D1 72                    1115 	ld	(hl), d
      0004D2 E1                    1116 	pop	hl
      0004D3 E5                    1117 	push	hl
      0004D4 7D                    1118 	ld	a, l
      0004D5 F8 14                 1119 	ldhl	sp,	#20
      0004D7 77                    1120 	ld	(hl), a
      0004D8 E1                    1121 	pop	hl
      0004D9 7C                    1122 	ld	a, h
      0004DA F8 13                 1123 	ldhl	sp,	#19
      0004DC 77                    1124 	ld	(hl), a
      0004DD F8 10                 1125 	ldhl	sp,#16
      0004DF 2A                    1126 	ld	a, (hl+)
      0004E0 5F                    1127 	ld	e, a
      0004E1 56                    1128 	ld	d, (hl)
      0004E2 7B                    1129 	ld	a, e
      0004E3 F8 26                 1130 	ldhl	sp,	#38
      0004E5 86                    1131 	add	a, (hl)
      0004E6 5F                    1132 	ld	e, a
      0004E7 7A                    1133 	ld	a, d
      0004E8 23                    1134 	inc	hl
      0004E9 8E                    1135 	adc	a, (hl)
      0004EA F5                    1136 	push	af
      0004EB F8 17                 1137 	ldhl	sp,	#23
      0004ED 32                    1138 	ld	(hl-), a
      0004EE 7B                    1139 	ld	a, e
      0004EF 32                    1140 	ld	(hl-), a
      0004F0 2B                    1141 	dec	hl
      0004F1 2A                    1142 	ld	a, (hl+)
      0004F2 5F                    1143 	ld	e, a
      0004F3 56                    1144 	ld	d, (hl)
      0004F4 F8 2A                 1145 	ldhl	sp,	#42
      0004F6 F1                    1146 	pop	af
      0004F7 7B                    1147 	ld	a, e
      0004F8 8E                    1148 	adc	a, (hl)
      0004F9 5F                    1149 	ld	e, a
      0004FA 7A                    1150 	ld	a, d
      0004FB 23                    1151 	inc	hl
      0004FC 8E                    1152 	adc	a, (hl)
      0004FD F8 17                 1153 	ldhl	sp,	#23
      0004FF 32                    1154 	ld	(hl-), a
      000500 73                    1155 	ld	(hl), e
                                   1156 ;main.c:120: switch ( function ) {
      000501 F8 1A                 1157 	ldhl	sp,	#26
      000503 7E                    1158 	ld	a, (hl)
      000504 3D                    1159 	dec	a
      000505 23                    1160 	inc	hl
      000506 B6                    1161 	or	a, (hl)
      000507 23                    1162 	inc	hl
      000508 B6                    1163 	or	a, (hl)
      000509 23                    1164 	inc	hl
      00050A B6                    1165 	or	a, (hl)
      00050B CArE4r05              1166 	jp	Z,00101$
      00050E F8 1A                 1167 	ldhl	sp,	#26
      000510 7E                    1168 	ld	a, (hl)
      000511 D6 02                 1169 	sub	a, #0x02
      000513 23                    1170 	inc	hl
      000514 B6                    1171 	or	a, (hl)
      000515 23                    1172 	inc	hl
      000516 B6                    1173 	or	a, (hl)
      000517 23                    1174 	inc	hl
      000518 B6                    1175 	or	a, (hl)
      000519 CArF0r05              1176 	jp	Z,00102$
                                   1177 ;main.c:126: return ((zx*zx*zx - 3*zx*zy*zy)/factor + cx);
      00051C F8 20                 1178 	ldhl	sp,	#32
      00051E 2A                    1179 	ld	a, (hl+)
      00051F 66                    1180 	ld	h, (hl)
      000520 6F                    1181 	ld	l, a
      000521 E5                    1182 	push	hl
      000522 F8 20                 1183 	ldhl	sp,	#32
      000524 2A                    1184 	ld	a, (hl+)
      000525 66                    1185 	ld	h, (hl)
      000526 6F                    1186 	ld	l, a
      000527 E5                    1187 	push	hl
      000528 F8 06                 1188 	ldhl	sp,	#6
      00052A 2A                    1189 	ld	a, (hl+)
      00052B 66                    1190 	ld	h, (hl)
      00052C 6F                    1191 	ld	l, a
      00052D E5                    1192 	push	hl
      00052E F8 06                 1193 	ldhl	sp,	#6
      000530 2A                    1194 	ld	a, (hl+)
      000531 66                    1195 	ld	h, (hl)
      000532 6F                    1196 	ld	l, a
      000533 E5                    1197 	push	hl
                                   1198 ;main.c:120: switch ( function ) {
      000534 CDr00r00              1199 	call	__mullong
      000537 E8 08                 1200 	add	sp, #8
      000539 E5                    1201 	push	hl
      00053A F8 16                 1202 	ldhl	sp,	#22
      00053C 73                    1203 	ld	(hl), e
      00053D F8 17                 1204 	ldhl	sp,	#23
      00053F 72                    1205 	ld	(hl), d
      000540 E1                    1206 	pop	hl
      000541 E5                    1207 	push	hl
      000542 7D                    1208 	ld	a, l
      000543 F8 18                 1209 	ldhl	sp,	#24
      000545 77                    1210 	ld	(hl), a
      000546 E1                    1211 	pop	hl
      000547 7C                    1212 	ld	a, h
      000548 F8 17                 1213 	ldhl	sp,	#23
      00054A 77                    1214 	ld	(hl), a
      00054B F8 1A                 1215 	ldhl	sp,	#26
      00054D 7E                    1216 	ld	a, (hl)
      00054E D6 03                 1217 	sub	a, #0x03
      000550 23                    1218 	inc	hl
      000551 B6                    1219 	or	a, (hl)
      000552 23                    1220 	inc	hl
      000553 B6                    1221 	or	a, (hl)
      000554 23                    1222 	inc	hl
      000555 B6                    1223 	or	a, (hl)
      000556 CArFCr05              1224 	jp	Z,00103$
                                   1225 ;main.c:128: return ((zx*zx*zx*zx - (6*zx*zx - zy*zy)*zy*zy)/factor + cx);
      000559 F8 20                 1226 	ldhl	sp,	#32
      00055B 2A                    1227 	ld	a, (hl+)
      00055C 66                    1228 	ld	h, (hl)
      00055D 6F                    1229 	ld	l, a
      00055E E5                    1230 	push	hl
      00055F F8 20                 1231 	ldhl	sp,	#32
      000561 2A                    1232 	ld	a, (hl+)
      000562 66                    1233 	ld	h, (hl)
      000563 6F                    1234 	ld	l, a
      000564 E5                    1235 	push	hl
      000565 F8 1A                 1236 	ldhl	sp,	#26
      000567 2A                    1237 	ld	a, (hl+)
      000568 66                    1238 	ld	h, (hl)
      000569 6F                    1239 	ld	l, a
      00056A E5                    1240 	push	hl
      00056B F8 1A                 1241 	ldhl	sp,	#26
      00056D 2A                    1242 	ld	a, (hl+)
      00056E 66                    1243 	ld	h, (hl)
      00056F 6F                    1244 	ld	l, a
      000570 E5                    1245 	push	hl
                                   1246 ;main.c:120: switch ( function ) {
      000571 CDr00r00              1247 	call	__mullong
      000574 E8 08                 1248 	add	sp, #8
      000576 E5                    1249 	push	hl
      000577 F8 12                 1250 	ldhl	sp,	#18
      000579 73                    1251 	ld	(hl), e
      00057A F8 13                 1252 	ldhl	sp,	#19
      00057C 72                    1253 	ld	(hl), d
      00057D E1                    1254 	pop	hl
      00057E E5                    1255 	push	hl
      00057F 7D                    1256 	ld	a, l
      000580 F8 14                 1257 	ldhl	sp,	#20
      000582 77                    1258 	ld	(hl), a
      000583 E1                    1259 	pop	hl
      000584 7C                    1260 	ld	a, h
      000585 F8 13                 1261 	ldhl	sp,	#19
      000587 77                    1262 	ld	(hl), a
      000588 F8 1A                 1263 	ldhl	sp,	#26
      00058A 7E                    1264 	ld	a, (hl)
      00058B D6 04                 1265 	sub	a, #0x04
      00058D 23                    1266 	inc	hl
      00058E B6                    1267 	or	a, (hl)
      00058F 23                    1268 	inc	hl
      000590 B6                    1269 	or	a, (hl)
      000591 23                    1270 	inc	hl
      000592 B6                    1271 	or	a, (hl)
      000593 CArD4r06              1272 	jp	Z,00104$
                                   1273 ;main.c:130: return ((zx*zx*zx*zx*zx + zx*zy*zy*(5*zy*zy - 10*zx*zx))/factor + cx);
      000596 F8 20                 1274 	ldhl	sp,	#32
      000598 2A                    1275 	ld	a, (hl+)
      000599 66                    1276 	ld	h, (hl)
      00059A 6F                    1277 	ld	l, a
      00059B E5                    1278 	push	hl
      00059C F8 20                 1279 	ldhl	sp,	#32
      00059E 2A                    1280 	ld	a, (hl+)
      00059F 66                    1281 	ld	h, (hl)
      0005A0 6F                    1282 	ld	l, a
      0005A1 E5                    1283 	push	hl
      0005A2 F8 16                 1284 	ldhl	sp,	#22
      0005A4 2A                    1285 	ld	a, (hl+)
      0005A5 66                    1286 	ld	h, (hl)
      0005A6 6F                    1287 	ld	l, a
      0005A7 E5                    1288 	push	hl
      0005A8 F8 16                 1289 	ldhl	sp,	#22
      0005AA 2A                    1290 	ld	a, (hl+)
      0005AB 66                    1291 	ld	h, (hl)
      0005AC 6F                    1292 	ld	l, a
      0005AD E5                    1293 	push	hl
                                   1294 ;main.c:120: switch ( function ) {
      0005AE CDr00r00              1295 	call	__mullong
      0005B1 E8 08                 1296 	add	sp, #8
      0005B3 E5                    1297 	push	hl
      0005B4 F8 16                 1298 	ldhl	sp,	#22
      0005B6 73                    1299 	ld	(hl), e
      0005B7 F8 17                 1300 	ldhl	sp,	#23
      0005B9 72                    1301 	ld	(hl), d
      0005BA E1                    1302 	pop	hl
      0005BB E5                    1303 	push	hl
      0005BC 7D                    1304 	ld	a, l
      0005BD F8 18                 1305 	ldhl	sp,	#24
      0005BF 77                    1306 	ld	(hl), a
      0005C0 E1                    1307 	pop	hl
      0005C1 7C                    1308 	ld	a, h
      0005C2 F8 17                 1309 	ldhl	sp,	#23
      0005C4 77                    1310 	ld	(hl), a
      0005C5 F8 1A                 1311 	ldhl	sp,	#26
      0005C7 7E                    1312 	ld	a, (hl)
      0005C8 D6 05                 1313 	sub	a, #0x05
      0005CA 23                    1314 	inc	hl
      0005CB B6                    1315 	or	a, (hl)
      0005CC 23                    1316 	inc	hl
      0005CD B6                    1317 	or	a, (hl)
      0005CE 23                    1318 	inc	hl
      0005CF B6                    1319 	or	a, (hl)
      0005D0 CArFFr07              1320 	jp	Z,00105$
      0005D3 F8 1A                 1321 	ldhl	sp,	#26
      0005D5 7E                    1322 	ld	a, (hl)
      0005D6 D6 06                 1323 	sub	a, #0x06
      0005D8 23                    1324 	inc	hl
      0005D9 B6                    1325 	or	a, (hl)
      0005DA 23                    1326 	inc	hl
      0005DB B6                    1327 	or	a, (hl)
      0005DC 23                    1328 	inc	hl
      0005DD B6                    1329 	or	a, (hl)
      0005DE CAr92r09              1330 	jp	Z,00106$
      0005E1 C3r8Fr0B              1331 	jp	00107$
                                   1332 ;main.c:121: case 1:
      0005E4                       1333 00101$:
                                   1334 ;main.c:122: return ((zx*zx - zy*zy)/factor + cx);
      0005E4 F8 14                 1335 	ldhl	sp,#20
      0005E6 2A                    1336 	ld	a, (hl+)
      0005E7 5F                    1337 	ld	e, a
      0005E8 2A                    1338 	ld	a, (hl+)
      0005E9 57                    1339 	ld	d, a
      0005EA 2A                    1340 	ld	a, (hl+)
      0005EB 66                    1341 	ld	h, (hl)
      0005EC 6F                    1342 	ld	l, a
      0005ED C3r95r0B              1343 	jp	00108$
                                   1344 ;main.c:123: case 2:
      0005F0                       1345 00102$:
                                   1346 ;main.c:124: return (zx*zx - zy*zy)/factor + cx;
      0005F0 F8 14                 1347 	ldhl	sp,#20
      0005F2 2A                    1348 	ld	a, (hl+)
      0005F3 5F                    1349 	ld	e, a
      0005F4 2A                    1350 	ld	a, (hl+)
      0005F5 57                    1351 	ld	d, a
      0005F6 2A                    1352 	ld	a, (hl+)
      0005F7 66                    1353 	ld	h, (hl)
      0005F8 6F                    1354 	ld	l, a
      0005F9 C3r95r0B              1355 	jp	00108$
                                   1356 ;main.c:125: case 3:
      0005FC                       1357 00103$:
                                   1358 ;main.c:126: return ((zx*zx*zx - 3*zx*zy*zy)/factor + cx);
      0005FC F8 20                 1359 	ldhl	sp,	#32
      0005FE 2A                    1360 	ld	a, (hl+)
      0005FF 66                    1361 	ld	h, (hl)
      000600 6F                    1362 	ld	l, a
      000601 E5                    1363 	push	hl
      000602 F8 20                 1364 	ldhl	sp,	#32
      000604 2A                    1365 	ld	a, (hl+)
      000605 66                    1366 	ld	h, (hl)
      000606 6F                    1367 	ld	l, a
      000607 E5                    1368 	push	hl
      000608 21 00 00              1369 	ld	hl, #0x0000
      00060B E5                    1370 	push	hl
      00060C 21 03 00              1371 	ld	hl, #0x0003
      00060F E5                    1372 	push	hl
      000610 CDr00r00              1373 	call	__mullong
      000613 E8 08                 1374 	add	sp, #8
      000615 4D                    1375 	ld	c, l
      000616 44                    1376 	ld	b, h
      000617 F8 24                 1377 	ldhl	sp,	#36
      000619 2A                    1378 	ld	a, (hl+)
      00061A 66                    1379 	ld	h, (hl)
      00061B 6F                    1380 	ld	l, a
      00061C E5                    1381 	push	hl
      00061D F8 24                 1382 	ldhl	sp,	#36
      00061F 2A                    1383 	ld	a, (hl+)
      000620 66                    1384 	ld	h, (hl)
      000621 6F                    1385 	ld	l, a
      000622 E5                    1386 	push	hl
      000623 C5                    1387 	push	bc
      000624 D5                    1388 	push	de
      000625 CDr00r00              1389 	call	__mullong
      000628 E8 08                 1390 	add	sp, #8
      00062A 4D                    1391 	ld	c, l
      00062B 44                    1392 	ld	b, h
      00062C F8 24                 1393 	ldhl	sp,	#36
      00062E 2A                    1394 	ld	a, (hl+)
      00062F 66                    1395 	ld	h, (hl)
      000630 6F                    1396 	ld	l, a
      000631 E5                    1397 	push	hl
      000632 F8 24                 1398 	ldhl	sp,	#36
      000634 2A                    1399 	ld	a, (hl+)
      000635 66                    1400 	ld	h, (hl)
      000636 6F                    1401 	ld	l, a
      000637 E5                    1402 	push	hl
      000638 C5                    1403 	push	bc
      000639 D5                    1404 	push	de
      00063A CDr00r00              1405 	call	__mullong
      00063D E8 08                 1406 	add	sp, #8
      00063F E5                    1407 	push	hl
      000640 F8 0E                 1408 	ldhl	sp,	#14
      000642 73                    1409 	ld	(hl), e
      000643 F8 0F                 1410 	ldhl	sp,	#15
      000645 72                    1411 	ld	(hl), d
      000646 E1                    1412 	pop	hl
      000647 E5                    1413 	push	hl
      000648 7D                    1414 	ld	a, l
      000649 F8 10                 1415 	ldhl	sp,	#16
      00064B 77                    1416 	ld	(hl), a
      00064C E1                    1417 	pop	hl
      00064D 7C                    1418 	ld	a, h
      00064E F8 0F                 1419 	ldhl	sp,	#15
      000650 77                    1420 	ld	(hl), a
      000651 F8 14                 1421 	ldhl	sp,#20
      000653 2A                    1422 	ld	a, (hl+)
      000654 5F                    1423 	ld	e, a
      000655 56                    1424 	ld	d, (hl)
      000656 7B                    1425 	ld	a, e
      000657 F8 0C                 1426 	ldhl	sp,	#12
      000659 96                    1427 	sub	a, (hl)
      00065A 5F                    1428 	ld	e, a
      00065B 7A                    1429 	ld	a, d
      00065C 23                    1430 	inc	hl
      00065D 9E                    1431 	sbc	a, (hl)
      00065E F5                    1432 	push	af
      00065F F8 13                 1433 	ldhl	sp,	#19
      000661 32                    1434 	ld	(hl-), a
      000662 73                    1435 	ld	(hl), e
      000663 F8 18                 1436 	ldhl	sp,#24
      000665 2A                    1437 	ld	a, (hl+)
      000666 5F                    1438 	ld	e, a
      000667 56                    1439 	ld	d, (hl)
      000668 F8 10                 1440 	ldhl	sp,	#16
      00066A F1                    1441 	pop	af
      00066B 7B                    1442 	ld	a, e
      00066C 9E                    1443 	sbc	a, (hl)
      00066D 5F                    1444 	ld	e, a
      00066E 7A                    1445 	ld	a, d
      00066F 23                    1446 	inc	hl
      000670 9E                    1447 	sbc	a, (hl)
      000671 F8 13                 1448 	ldhl	sp,	#19
      000673 32                    1449 	ld	(hl-), a
      000674 73                    1450 	ld	(hl), e
      000675 F8 0A                 1451 	ldhl	sp,	#10
      000677 2A                    1452 	ld	a, (hl+)
      000678 66                    1453 	ld	h, (hl)
      000679 6F                    1454 	ld	l, a
      00067A E5                    1455 	push	hl
      00067B F8 0A                 1456 	ldhl	sp,	#10
      00067D 2A                    1457 	ld	a, (hl+)
      00067E 66                    1458 	ld	h, (hl)
      00067F 6F                    1459 	ld	l, a
      000680 E5                    1460 	push	hl
      000681 F8 16                 1461 	ldhl	sp,	#22
      000683 2A                    1462 	ld	a, (hl+)
      000684 66                    1463 	ld	h, (hl)
      000685 6F                    1464 	ld	l, a
      000686 E5                    1465 	push	hl
      000687 F8 16                 1466 	ldhl	sp,	#22
      000689 2A                    1467 	ld	a, (hl+)
      00068A 66                    1468 	ld	h, (hl)
      00068B 6F                    1469 	ld	l, a
      00068C E5                    1470 	push	hl
      00068D CDr00r00              1471 	call	__divslong
      000690 E8 08                 1472 	add	sp, #8
      000692 E5                    1473 	push	hl
      000693 F8 12                 1474 	ldhl	sp,	#18
      000695 73                    1475 	ld	(hl), e
      000696 F8 13                 1476 	ldhl	sp,	#19
      000698 72                    1477 	ld	(hl), d
      000699 E1                    1478 	pop	hl
      00069A E5                    1479 	push	hl
      00069B 7D                    1480 	ld	a, l
      00069C F8 14                 1481 	ldhl	sp,	#20
      00069E 77                    1482 	ld	(hl), a
      00069F E1                    1483 	pop	hl
      0006A0 7C                    1484 	ld	a, h
      0006A1 F8 13                 1485 	ldhl	sp,	#19
      0006A3 77                    1486 	ld	(hl), a
      0006A4 F8 10                 1487 	ldhl	sp,#16
      0006A6 2A                    1488 	ld	a, (hl+)
      0006A7 5F                    1489 	ld	e, a
      0006A8 56                    1490 	ld	d, (hl)
      0006A9 7B                    1491 	ld	a, e
      0006AA F8 26                 1492 	ldhl	sp,	#38
      0006AC 86                    1493 	add	a, (hl)
      0006AD 5F                    1494 	ld	e, a
      0006AE 7A                    1495 	ld	a, d
      0006AF 23                    1496 	inc	hl
      0006B0 8E                    1497 	adc	a, (hl)
      0006B1 F5                    1498 	push	af
      0006B2 F8 17                 1499 	ldhl	sp,	#23
      0006B4 32                    1500 	ld	(hl-), a
      0006B5 7B                    1501 	ld	a, e
      0006B6 32                    1502 	ld	(hl-), a
      0006B7 2B                    1503 	dec	hl
      0006B8 2A                    1504 	ld	a, (hl+)
      0006B9 5F                    1505 	ld	e, a
      0006BA 56                    1506 	ld	d, (hl)
      0006BB F8 2A                 1507 	ldhl	sp,	#42
      0006BD F1                    1508 	pop	af
      0006BE 7B                    1509 	ld	a, e
      0006BF 8E                    1510 	adc	a, (hl)
      0006C0 5F                    1511 	ld	e, a
      0006C1 7A                    1512 	ld	a, d
      0006C2 23                    1513 	inc	hl
      0006C3 8E                    1514 	adc	a, (hl)
      0006C4 F8 17                 1515 	ldhl	sp,	#23
      0006C6 32                    1516 	ld	(hl-), a
      0006C7 7B                    1517 	ld	a, e
      0006C8 32                    1518 	ld	(hl-), a
      0006C9 2B                    1519 	dec	hl
      0006CA 2A                    1520 	ld	a, (hl+)
      0006CB 5F                    1521 	ld	e, a
      0006CC 2A                    1522 	ld	a, (hl+)
      0006CD 57                    1523 	ld	d, a
      0006CE 2A                    1524 	ld	a, (hl+)
      0006CF 66                    1525 	ld	h, (hl)
      0006D0 6F                    1526 	ld	l, a
      0006D1 C3r95r0B              1527 	jp	00108$
                                   1528 ;main.c:127: case 4:
      0006D4                       1529 00104$:
                                   1530 ;main.c:128: return ((zx*zx*zx*zx - (6*zx*zx - zy*zy)*zy*zy)/factor + cx);
      0006D4 F8 20                 1531 	ldhl	sp,	#32
      0006D6 2A                    1532 	ld	a, (hl+)
      0006D7 66                    1533 	ld	h, (hl)
      0006D8 6F                    1534 	ld	l, a
      0006D9 E5                    1535 	push	hl
      0006DA F8 20                 1536 	ldhl	sp,	#32
      0006DC 2A                    1537 	ld	a, (hl+)
      0006DD 66                    1538 	ld	h, (hl)
      0006DE 6F                    1539 	ld	l, a
      0006DF E5                    1540 	push	hl
      0006E0 21 00 00              1541 	ld	hl, #0x0000
      0006E3 E5                    1542 	push	hl
      0006E4 21 06 00              1543 	ld	hl, #0x0006
      0006E7 E5                    1544 	push	hl
      0006E8 CDr00r00              1545 	call	__mullong
      0006EB E8 08                 1546 	add	sp, #8
      0006ED 4D                    1547 	ld	c, l
      0006EE 44                    1548 	ld	b, h
      0006EF F8 20                 1549 	ldhl	sp,	#32
      0006F1 2A                    1550 	ld	a, (hl+)
      0006F2 66                    1551 	ld	h, (hl)
      0006F3 6F                    1552 	ld	l, a
      0006F4 E5                    1553 	push	hl
      0006F5 F8 20                 1554 	ldhl	sp,	#32
      0006F7 2A                    1555 	ld	a, (hl+)
      0006F8 66                    1556 	ld	h, (hl)
      0006F9 6F                    1557 	ld	l, a
      0006FA E5                    1558 	push	hl
      0006FB C5                    1559 	push	bc
      0006FC D5                    1560 	push	de
      0006FD CDr00r00              1561 	call	__mullong
      000700 E8 08                 1562 	add	sp, #8
      000702 E5                    1563 	push	hl
      000703 F8 0E                 1564 	ldhl	sp,	#14
      000705 73                    1565 	ld	(hl), e
      000706 F8 0F                 1566 	ldhl	sp,	#15
      000708 72                    1567 	ld	(hl), d
      000709 E1                    1568 	pop	hl
      00070A E5                    1569 	push	hl
      00070B 7D                    1570 	ld	a, l
      00070C F8 10                 1571 	ldhl	sp,	#16
      00070E 77                    1572 	ld	(hl), a
      00070F E1                    1573 	pop	hl
      000710 7C                    1574 	ld	a, h
      000711 F8 0F                 1575 	ldhl	sp,	#15
      000713 77                    1576 	ld	(hl), a
      000714 F8 0C                 1577 	ldhl	sp,#12
      000716 2A                    1578 	ld	a, (hl+)
      000717 5F                    1579 	ld	e, a
      000718 56                    1580 	ld	d, (hl)
      000719 7B                    1581 	ld	a, e
      00071A F8 04                 1582 	ldhl	sp,	#4
      00071C 96                    1583 	sub	a, (hl)
      00071D 5F                    1584 	ld	e, a
      00071E 7A                    1585 	ld	a, d
      00071F 23                    1586 	inc	hl
      000720 9E                    1587 	sbc	a, (hl)
      000721 F5                    1588 	push	af
      000722 F8 17                 1589 	ldhl	sp,	#23
      000724 32                    1590 	ld	(hl-), a
      000725 73                    1591 	ld	(hl), e
      000726 F8 10                 1592 	ldhl	sp,#16
      000728 2A                    1593 	ld	a, (hl+)
      000729 5F                    1594 	ld	e, a
      00072A 56                    1595 	ld	d, (hl)
      00072B F8 08                 1596 	ldhl	sp,	#8
      00072D F1                    1597 	pop	af
      00072E 7B                    1598 	ld	a, e
      00072F 9E                    1599 	sbc	a, (hl)
      000730 5F                    1600 	ld	e, a
      000731 7A                    1601 	ld	a, d
      000732 23                    1602 	inc	hl
      000733 9E                    1603 	sbc	a, (hl)
      000734 F8 17                 1604 	ldhl	sp,	#23
      000736 32                    1605 	ld	(hl-), a
      000737 73                    1606 	ld	(hl), e
      000738 F8 24                 1607 	ldhl	sp,	#36
      00073A 2A                    1608 	ld	a, (hl+)
      00073B 66                    1609 	ld	h, (hl)
      00073C 6F                    1610 	ld	l, a
      00073D E5                    1611 	push	hl
      00073E F8 24                 1612 	ldhl	sp,	#36
      000740 2A                    1613 	ld	a, (hl+)
      000741 66                    1614 	ld	h, (hl)
      000742 6F                    1615 	ld	l, a
      000743 E5                    1616 	push	hl
      000744 F8 1A                 1617 	ldhl	sp,	#26
      000746 2A                    1618 	ld	a, (hl+)
      000747 66                    1619 	ld	h, (hl)
      000748 6F                    1620 	ld	l, a
      000749 E5                    1621 	push	hl
      00074A F8 1A                 1622 	ldhl	sp,	#26
      00074C 2A                    1623 	ld	a, (hl+)
      00074D 66                    1624 	ld	h, (hl)
      00074E 6F                    1625 	ld	l, a
      00074F E5                    1626 	push	hl
      000750 CDr00r00              1627 	call	__mullong
      000753 E8 08                 1628 	add	sp, #8
      000755 4D                    1629 	ld	c, l
      000756 44                    1630 	ld	b, h
      000757 F8 24                 1631 	ldhl	sp,	#36
      000759 2A                    1632 	ld	a, (hl+)
      00075A 66                    1633 	ld	h, (hl)
      00075B 6F                    1634 	ld	l, a
      00075C E5                    1635 	push	hl
      00075D F8 24                 1636 	ldhl	sp,	#36
      00075F 2A                    1637 	ld	a, (hl+)
      000760 66                    1638 	ld	h, (hl)
      000761 6F                    1639 	ld	l, a
      000762 E5                    1640 	push	hl
      000763 C5                    1641 	push	bc
      000764 D5                    1642 	push	de
      000765 CDr00r00              1643 	call	__mullong
      000768 E8 08                 1644 	add	sp, #8
      00076A E5                    1645 	push	hl
      00076B F8 0E                 1646 	ldhl	sp,	#14
      00076D 73                    1647 	ld	(hl), e
      00076E F8 0F                 1648 	ldhl	sp,	#15
      000770 72                    1649 	ld	(hl), d
      000771 E1                    1650 	pop	hl
      000772 E5                    1651 	push	hl
      000773 7D                    1652 	ld	a, l
      000774 F8 10                 1653 	ldhl	sp,	#16
      000776 77                    1654 	ld	(hl), a
      000777 E1                    1655 	pop	hl
      000778 7C                    1656 	ld	a, h
      000779 F8 0F                 1657 	ldhl	sp,	#15
      00077B 77                    1658 	ld	(hl), a
      00077C F8 10                 1659 	ldhl	sp,#16
      00077E 2A                    1660 	ld	a, (hl+)
      00077F 5F                    1661 	ld	e, a
      000780 56                    1662 	ld	d, (hl)
      000781 7B                    1663 	ld	a, e
      000782 F8 0C                 1664 	ldhl	sp,	#12
      000784 96                    1665 	sub	a, (hl)
      000785 5F                    1666 	ld	e, a
      000786 7A                    1667 	ld	a, d
      000787 23                    1668 	inc	hl
      000788 9E                    1669 	sbc	a, (hl)
      000789 F5                    1670 	push	af
      00078A F8 17                 1671 	ldhl	sp,	#23
      00078C 32                    1672 	ld	(hl-), a
      00078D 7B                    1673 	ld	a, e
      00078E 32                    1674 	ld	(hl-), a
      00078F 2B                    1675 	dec	hl
      000790 2A                    1676 	ld	a, (hl+)
      000791 5F                    1677 	ld	e, a
      000792 56                    1678 	ld	d, (hl)
      000793 F8 10                 1679 	ldhl	sp,	#16
      000795 F1                    1680 	pop	af
      000796 7B                    1681 	ld	a, e
      000797 9E                    1682 	sbc	a, (hl)
      000798 5F                    1683 	ld	e, a
      000799 7A                    1684 	ld	a, d
      00079A 23                    1685 	inc	hl
      00079B 9E                    1686 	sbc	a, (hl)
      00079C F8 17                 1687 	ldhl	sp,	#23
      00079E 32                    1688 	ld	(hl-), a
      00079F 73                    1689 	ld	(hl), e
      0007A0 F8 0A                 1690 	ldhl	sp,	#10
      0007A2 2A                    1691 	ld	a, (hl+)
      0007A3 66                    1692 	ld	h, (hl)
      0007A4 6F                    1693 	ld	l, a
      0007A5 E5                    1694 	push	hl
      0007A6 F8 0A                 1695 	ldhl	sp,	#10
      0007A8 2A                    1696 	ld	a, (hl+)
      0007A9 66                    1697 	ld	h, (hl)
      0007AA 6F                    1698 	ld	l, a
      0007AB E5                    1699 	push	hl
      0007AC F8 1A                 1700 	ldhl	sp,	#26
      0007AE 2A                    1701 	ld	a, (hl+)
      0007AF 66                    1702 	ld	h, (hl)
      0007B0 6F                    1703 	ld	l, a
      0007B1 E5                    1704 	push	hl
      0007B2 F8 1A                 1705 	ldhl	sp,	#26
      0007B4 2A                    1706 	ld	a, (hl+)
      0007B5 66                    1707 	ld	h, (hl)
      0007B6 6F                    1708 	ld	l, a
      0007B7 E5                    1709 	push	hl
      0007B8 CDr00r00              1710 	call	__divslong
      0007BB E8 08                 1711 	add	sp, #8
      0007BD E5                    1712 	push	hl
      0007BE F8 12                 1713 	ldhl	sp,	#18
      0007C0 73                    1714 	ld	(hl), e
      0007C1 F8 13                 1715 	ldhl	sp,	#19
      0007C3 72                    1716 	ld	(hl), d
      0007C4 E1                    1717 	pop	hl
      0007C5 E5                    1718 	push	hl
      0007C6 7D                    1719 	ld	a, l
      0007C7 F8 14                 1720 	ldhl	sp,	#20
      0007C9 77                    1721 	ld	(hl), a
      0007CA E1                    1722 	pop	hl
      0007CB 7C                    1723 	ld	a, h
      0007CC F8 13                 1724 	ldhl	sp,	#19
      0007CE 77                    1725 	ld	(hl), a
      0007CF F8 10                 1726 	ldhl	sp,#16
      0007D1 2A                    1727 	ld	a, (hl+)
      0007D2 5F                    1728 	ld	e, a
      0007D3 56                    1729 	ld	d, (hl)
      0007D4 7B                    1730 	ld	a, e
      0007D5 F8 26                 1731 	ldhl	sp,	#38
      0007D7 86                    1732 	add	a, (hl)
      0007D8 5F                    1733 	ld	e, a
      0007D9 7A                    1734 	ld	a, d
      0007DA 23                    1735 	inc	hl
      0007DB 8E                    1736 	adc	a, (hl)
      0007DC F5                    1737 	push	af
      0007DD F8 17                 1738 	ldhl	sp,	#23
      0007DF 32                    1739 	ld	(hl-), a
      0007E0 7B                    1740 	ld	a, e
      0007E1 32                    1741 	ld	(hl-), a
      0007E2 2B                    1742 	dec	hl
      0007E3 2A                    1743 	ld	a, (hl+)
      0007E4 5F                    1744 	ld	e, a
      0007E5 56                    1745 	ld	d, (hl)
      0007E6 F8 2A                 1746 	ldhl	sp,	#42
      0007E8 F1                    1747 	pop	af
      0007E9 7B                    1748 	ld	a, e
      0007EA 8E                    1749 	adc	a, (hl)
      0007EB 5F                    1750 	ld	e, a
      0007EC 7A                    1751 	ld	a, d
      0007ED 23                    1752 	inc	hl
      0007EE 8E                    1753 	adc	a, (hl)
      0007EF F8 17                 1754 	ldhl	sp,	#23
      0007F1 32                    1755 	ld	(hl-), a
      0007F2 7B                    1756 	ld	a, e
      0007F3 32                    1757 	ld	(hl-), a
      0007F4 2B                    1758 	dec	hl
      0007F5 2A                    1759 	ld	a, (hl+)
      0007F6 5F                    1760 	ld	e, a
      0007F7 2A                    1761 	ld	a, (hl+)
      0007F8 57                    1762 	ld	d, a
      0007F9 2A                    1763 	ld	a, (hl+)
      0007FA 66                    1764 	ld	h, (hl)
      0007FB 6F                    1765 	ld	l, a
      0007FC C3r95r0B              1766 	jp	00108$
                                   1767 ;main.c:129: case 5:
      0007FF                       1768 00105$:
                                   1769 ;main.c:130: return ((zx*zx*zx*zx*zx + zx*zy*zy*(5*zy*zy - 10*zx*zx))/factor + cx);
      0007FF F8 24                 1770 	ldhl	sp,	#36
      000801 2A                    1771 	ld	a, (hl+)
      000802 66                    1772 	ld	h, (hl)
      000803 6F                    1773 	ld	l, a
      000804 E5                    1774 	push	hl
      000805 F8 24                 1775 	ldhl	sp,	#36
      000807 2A                    1776 	ld	a, (hl+)
      000808 66                    1777 	ld	h, (hl)
      000809 6F                    1778 	ld	l, a
      00080A E5                    1779 	push	hl
      00080B F8 24                 1780 	ldhl	sp,	#36
      00080D 2A                    1781 	ld	a, (hl+)
      00080E 66                    1782 	ld	h, (hl)
      00080F 6F                    1783 	ld	l, a
      000810 E5                    1784 	push	hl
      000811 F8 24                 1785 	ldhl	sp,	#36
      000813 2A                    1786 	ld	a, (hl+)
      000814 66                    1787 	ld	h, (hl)
      000815 6F                    1788 	ld	l, a
      000816 E5                    1789 	push	hl
      000817 CDr00r00              1790 	call	__mullong
      00081A E8 08                 1791 	add	sp, #8
      00081C 4D                    1792 	ld	c, l
      00081D 44                    1793 	ld	b, h
      00081E F8 24                 1794 	ldhl	sp,	#36
      000820 2A                    1795 	ld	a, (hl+)
      000821 66                    1796 	ld	h, (hl)
      000822 6F                    1797 	ld	l, a
      000823 E5                    1798 	push	hl
      000824 F8 24                 1799 	ldhl	sp,	#36
      000826 2A                    1800 	ld	a, (hl+)
      000827 66                    1801 	ld	h, (hl)
      000828 6F                    1802 	ld	l, a
      000829 E5                    1803 	push	hl
      00082A C5                    1804 	push	bc
      00082B D5                    1805 	push	de
      00082C CDr00r00              1806 	call	__mullong
      00082F E8 08                 1807 	add	sp, #8
      000831 33                    1808 	inc	sp
      000832 33                    1809 	inc	sp
      000833 D5                    1810 	push	de
      000834 E5                    1811 	push	hl
      000835 7D                    1812 	ld	a, l
      000836 F8 04                 1813 	ldhl	sp,	#4
      000838 77                    1814 	ld	(hl), a
      000839 E1                    1815 	pop	hl
      00083A 7C                    1816 	ld	a, h
      00083B F8 03                 1817 	ldhl	sp,	#3
      00083D 77                    1818 	ld	(hl), a
      00083E F8 24                 1819 	ldhl	sp,	#36
      000840 2A                    1820 	ld	a, (hl+)
      000841 66                    1821 	ld	h, (hl)
      000842 6F                    1822 	ld	l, a
      000843 E5                    1823 	push	hl
      000844 F8 24                 1824 	ldhl	sp,	#36
      000846 2A                    1825 	ld	a, (hl+)
      000847 66                    1826 	ld	h, (hl)
      000848 6F                    1827 	ld	l, a
      000849 E5                    1828 	push	hl
      00084A 21 00 00              1829 	ld	hl, #0x0000
      00084D E5                    1830 	push	hl
      00084E 21 05 00              1831 	ld	hl, #0x0005
      000851 E5                    1832 	push	hl
      000852 CDr00r00              1833 	call	__mullong
      000855 E8 08                 1834 	add	sp, #8
      000857 4D                    1835 	ld	c, l
      000858 44                    1836 	ld	b, h
      000859 F8 24                 1837 	ldhl	sp,	#36
      00085B 2A                    1838 	ld	a, (hl+)
      00085C 66                    1839 	ld	h, (hl)
      00085D 6F                    1840 	ld	l, a
      00085E E5                    1841 	push	hl
      00085F F8 24                 1842 	ldhl	sp,	#36
      000861 2A                    1843 	ld	a, (hl+)
      000862 66                    1844 	ld	h, (hl)
      000863 6F                    1845 	ld	l, a
      000864 E5                    1846 	push	hl
      000865 C5                    1847 	push	bc
      000866 D5                    1848 	push	de
      000867 CDr00r00              1849 	call	__mullong
      00086A E8 08                 1850 	add	sp, #8
      00086C E5                    1851 	push	hl
      00086D F8 06                 1852 	ldhl	sp,	#6
      00086F 73                    1853 	ld	(hl), e
      000870 F8 07                 1854 	ldhl	sp,	#7
      000872 72                    1855 	ld	(hl), d
      000873 E1                    1856 	pop	hl
      000874 E5                    1857 	push	hl
      000875 7D                    1858 	ld	a, l
      000876 F8 08                 1859 	ldhl	sp,	#8
      000878 77                    1860 	ld	(hl), a
      000879 E1                    1861 	pop	hl
      00087A 7C                    1862 	ld	a, h
      00087B F8 07                 1863 	ldhl	sp,	#7
      00087D 77                    1864 	ld	(hl), a
      00087E F8 20                 1865 	ldhl	sp,	#32
      000880 2A                    1866 	ld	a, (hl+)
      000881 66                    1867 	ld	h, (hl)
      000882 6F                    1868 	ld	l, a
      000883 E5                    1869 	push	hl
      000884 F8 20                 1870 	ldhl	sp,	#32
      000886 2A                    1871 	ld	a, (hl+)
      000887 66                    1872 	ld	h, (hl)
      000888 6F                    1873 	ld	l, a
      000889 E5                    1874 	push	hl
      00088A 21 00 00              1875 	ld	hl, #0x0000
      00088D E5                    1876 	push	hl
      00088E 21 0A 00              1877 	ld	hl, #0x000a
      000891 E5                    1878 	push	hl
      000892 CDr00r00              1879 	call	__mullong
      000895 E8 08                 1880 	add	sp, #8
      000897 4D                    1881 	ld	c, l
      000898 44                    1882 	ld	b, h
      000899 F8 20                 1883 	ldhl	sp,	#32
      00089B 2A                    1884 	ld	a, (hl+)
      00089C 66                    1885 	ld	h, (hl)
      00089D 6F                    1886 	ld	l, a
      00089E E5                    1887 	push	hl
      00089F F8 20                 1888 	ldhl	sp,	#32
      0008A1 2A                    1889 	ld	a, (hl+)
      0008A2 66                    1890 	ld	h, (hl)
      0008A3 6F                    1891 	ld	l, a
      0008A4 E5                    1892 	push	hl
      0008A5 C5                    1893 	push	bc
      0008A6 D5                    1894 	push	de
      0008A7 CDr00r00              1895 	call	__mullong
      0008AA E8 08                 1896 	add	sp, #8
      0008AC E5                    1897 	push	hl
      0008AD F8 0E                 1898 	ldhl	sp,	#14
      0008AF 73                    1899 	ld	(hl), e
      0008B0 F8 0F                 1900 	ldhl	sp,	#15
      0008B2 72                    1901 	ld	(hl), d
      0008B3 E1                    1902 	pop	hl
      0008B4 E5                    1903 	push	hl
      0008B5 7D                    1904 	ld	a, l
      0008B6 F8 10                 1905 	ldhl	sp,	#16
      0008B8 77                    1906 	ld	(hl), a
      0008B9 E1                    1907 	pop	hl
      0008BA 7C                    1908 	ld	a, h
      0008BB F8 0F                 1909 	ldhl	sp,	#15
      0008BD 77                    1910 	ld	(hl), a
      0008BE F8 04                 1911 	ldhl	sp,#4
      0008C0 2A                    1912 	ld	a, (hl+)
      0008C1 5F                    1913 	ld	e, a
      0008C2 56                    1914 	ld	d, (hl)
      0008C3 7B                    1915 	ld	a, e
      0008C4 F8 0C                 1916 	ldhl	sp,	#12
      0008C6 96                    1917 	sub	a, (hl)
      0008C7 5F                    1918 	ld	e, a
      0008C8 7A                    1919 	ld	a, d
      0008C9 23                    1920 	inc	hl
      0008CA 9E                    1921 	sbc	a, (hl)
      0008CB F5                    1922 	push	af
      0008CC F8 13                 1923 	ldhl	sp,	#19
      0008CE 32                    1924 	ld	(hl-), a
      0008CF 73                    1925 	ld	(hl), e
      0008D0 F8 08                 1926 	ldhl	sp,#8
      0008D2 2A                    1927 	ld	a, (hl+)
      0008D3 5F                    1928 	ld	e, a
      0008D4 56                    1929 	ld	d, (hl)
      0008D5 F8 10                 1930 	ldhl	sp,	#16
      0008D7 F1                    1931 	pop	af
      0008D8 7B                    1932 	ld	a, e
      0008D9 9E                    1933 	sbc	a, (hl)
      0008DA 5F                    1934 	ld	e, a
      0008DB 7A                    1935 	ld	a, d
      0008DC 23                    1936 	inc	hl
      0008DD 9E                    1937 	sbc	a, (hl)
      0008DE F8 13                 1938 	ldhl	sp,	#19
      0008E0 32                    1939 	ld	(hl-), a
      0008E1 73                    1940 	ld	(hl), e
      0008E2 2A                    1941 	ld	a, (hl+)
      0008E3 66                    1942 	ld	h, (hl)
      0008E4 6F                    1943 	ld	l, a
      0008E5 E5                    1944 	push	hl
      0008E6 F8 12                 1945 	ldhl	sp,	#18
      0008E8 2A                    1946 	ld	a, (hl+)
      0008E9 66                    1947 	ld	h, (hl)
      0008EA 6F                    1948 	ld	l, a
      0008EB E5                    1949 	push	hl
      0008EC F8 06                 1950 	ldhl	sp,	#6
      0008EE 2A                    1951 	ld	a, (hl+)
      0008EF 66                    1952 	ld	h, (hl)
      0008F0 6F                    1953 	ld	l, a
      0008F1 E5                    1954 	push	hl
      0008F2 F8 06                 1955 	ldhl	sp,	#6
      0008F4 2A                    1956 	ld	a, (hl+)
      0008F5 66                    1957 	ld	h, (hl)
      0008F6 6F                    1958 	ld	l, a
      0008F7 E5                    1959 	push	hl
      0008F8 CDr00r00              1960 	call	__mullong
      0008FB E8 08                 1961 	add	sp, #8
      0008FD E5                    1962 	push	hl
      0008FE F8 0E                 1963 	ldhl	sp,	#14
      000900 73                    1964 	ld	(hl), e
      000901 F8 0F                 1965 	ldhl	sp,	#15
      000903 72                    1966 	ld	(hl), d
      000904 E1                    1967 	pop	hl
      000905 E5                    1968 	push	hl
      000906 7D                    1969 	ld	a, l
      000907 F8 10                 1970 	ldhl	sp,	#16
      000909 77                    1971 	ld	(hl), a
      00090A E1                    1972 	pop	hl
      00090B 7C                    1973 	ld	a, h
      00090C F8 0F                 1974 	ldhl	sp,	#15
      00090E 77                    1975 	ld	(hl), a
      00090F F8 14                 1976 	ldhl	sp,#20
      000911 2A                    1977 	ld	a, (hl+)
      000912 5F                    1978 	ld	e, a
      000913 56                    1979 	ld	d, (hl)
      000914 7B                    1980 	ld	a, e
      000915 F8 0C                 1981 	ldhl	sp,	#12
      000917 86                    1982 	add	a, (hl)
      000918 5F                    1983 	ld	e, a
      000919 7A                    1984 	ld	a, d
      00091A 23                    1985 	inc	hl
      00091B 8E                    1986 	adc	a, (hl)
      00091C F5                    1987 	push	af
      00091D F8 13                 1988 	ldhl	sp,	#19
      00091F 32                    1989 	ld	(hl-), a
      000920 73                    1990 	ld	(hl), e
      000921 F8 18                 1991 	ldhl	sp,#24
      000923 2A                    1992 	ld	a, (hl+)
      000924 5F                    1993 	ld	e, a
      000925 56                    1994 	ld	d, (hl)
      000926 F8 10                 1995 	ldhl	sp,	#16
      000928 F1                    1996 	pop	af
      000929 7B                    1997 	ld	a, e
      00092A 8E                    1998 	adc	a, (hl)
      00092B 5F                    1999 	ld	e, a
      00092C 7A                    2000 	ld	a, d
      00092D 23                    2001 	inc	hl
      00092E 8E                    2002 	adc	a, (hl)
      00092F F8 13                 2003 	ldhl	sp,	#19
      000931 32                    2004 	ld	(hl-), a
      000932 73                    2005 	ld	(hl), e
      000933 F8 0A                 2006 	ldhl	sp,	#10
      000935 2A                    2007 	ld	a, (hl+)
      000936 66                    2008 	ld	h, (hl)
      000937 6F                    2009 	ld	l, a
      000938 E5                    2010 	push	hl
      000939 F8 0A                 2011 	ldhl	sp,	#10
      00093B 2A                    2012 	ld	a, (hl+)
      00093C 66                    2013 	ld	h, (hl)
      00093D 6F                    2014 	ld	l, a
      00093E E5                    2015 	push	hl
      00093F F8 16                 2016 	ldhl	sp,	#22
      000941 2A                    2017 	ld	a, (hl+)
      000942 66                    2018 	ld	h, (hl)
      000943 6F                    2019 	ld	l, a
      000944 E5                    2020 	push	hl
      000945 F8 16                 2021 	ldhl	sp,	#22
      000947 2A                    2022 	ld	a, (hl+)
      000948 66                    2023 	ld	h, (hl)
      000949 6F                    2024 	ld	l, a
      00094A E5                    2025 	push	hl
      00094B CDr00r00              2026 	call	__divslong
      00094E E8 08                 2027 	add	sp, #8
      000950 E5                    2028 	push	hl
      000951 F8 12                 2029 	ldhl	sp,	#18
      000953 73                    2030 	ld	(hl), e
      000954 F8 13                 2031 	ldhl	sp,	#19
      000956 72                    2032 	ld	(hl), d
      000957 E1                    2033 	pop	hl
      000958 E5                    2034 	push	hl
      000959 7D                    2035 	ld	a, l
      00095A F8 14                 2036 	ldhl	sp,	#20
      00095C 77                    2037 	ld	(hl), a
      00095D E1                    2038 	pop	hl
      00095E 7C                    2039 	ld	a, h
      00095F F8 13                 2040 	ldhl	sp,	#19
      000961 77                    2041 	ld	(hl), a
      000962 F8 10                 2042 	ldhl	sp,#16
      000964 2A                    2043 	ld	a, (hl+)
      000965 5F                    2044 	ld	e, a
      000966 56                    2045 	ld	d, (hl)
      000967 7B                    2046 	ld	a, e
      000968 F8 26                 2047 	ldhl	sp,	#38
      00096A 86                    2048 	add	a, (hl)
      00096B 5F                    2049 	ld	e, a
      00096C 7A                    2050 	ld	a, d
      00096D 23                    2051 	inc	hl
      00096E 8E                    2052 	adc	a, (hl)
      00096F F5                    2053 	push	af
      000970 F8 17                 2054 	ldhl	sp,	#23
      000972 32                    2055 	ld	(hl-), a
      000973 7B                    2056 	ld	a, e
      000974 32                    2057 	ld	(hl-), a
      000975 2B                    2058 	dec	hl
      000976 2A                    2059 	ld	a, (hl+)
      000977 5F                    2060 	ld	e, a
      000978 56                    2061 	ld	d, (hl)
      000979 F8 2A                 2062 	ldhl	sp,	#42
      00097B F1                    2063 	pop	af
      00097C 7B                    2064 	ld	a, e
      00097D 8E                    2065 	adc	a, (hl)
      00097E 5F                    2066 	ld	e, a
      00097F 7A                    2067 	ld	a, d
      000980 23                    2068 	inc	hl
      000981 8E                    2069 	adc	a, (hl)
      000982 F8 17                 2070 	ldhl	sp,	#23
      000984 32                    2071 	ld	(hl-), a
      000985 7B                    2072 	ld	a, e
      000986 32                    2073 	ld	(hl-), a
      000987 2B                    2074 	dec	hl
      000988 2A                    2075 	ld	a, (hl+)
      000989 5F                    2076 	ld	e, a
      00098A 2A                    2077 	ld	a, (hl+)
      00098B 57                    2078 	ld	d, a
      00098C 2A                    2079 	ld	a, (hl+)
      00098D 66                    2080 	ld	h, (hl)
      00098E 6F                    2081 	ld	l, a
      00098F C3r95r0B              2082 	jp	00108$
                                   2083 ;main.c:131: case 6:
      000992                       2084 00106$:
                                   2085 ;main.c:132: return (zx*zx*zx*zx*zx*zx - 15*((zx*zx*zx*zx)*(zy*zy)) + 15*((zx*zx)*(zy*zy*zy*zy)) - zy*zy*zy*zy*zy*zy)/factor + cx;
      000992 F8 20                 2086 	ldhl	sp,	#32
      000994 2A                    2087 	ld	a, (hl+)
      000995 66                    2088 	ld	h, (hl)
      000996 6F                    2089 	ld	l, a
      000997 E5                    2090 	push	hl
      000998 F8 20                 2091 	ldhl	sp,	#32
      00099A 2A                    2092 	ld	a, (hl+)
      00099B 66                    2093 	ld	h, (hl)
      00099C 6F                    2094 	ld	l, a
      00099D E5                    2095 	push	hl
      00099E F8 1A                 2096 	ldhl	sp,	#26
      0009A0 2A                    2097 	ld	a, (hl+)
      0009A1 66                    2098 	ld	h, (hl)
      0009A2 6F                    2099 	ld	l, a
      0009A3 E5                    2100 	push	hl
      0009A4 F8 1A                 2101 	ldhl	sp,	#26
      0009A6 2A                    2102 	ld	a, (hl+)
      0009A7 66                    2103 	ld	h, (hl)
      0009A8 6F                    2104 	ld	l, a
      0009A9 E5                    2105 	push	hl
      0009AA CDr00r00              2106 	call	__mullong
      0009AD E8 08                 2107 	add	sp, #8
      0009AF E5                    2108 	push	hl
      0009B0 F8 0E                 2109 	ldhl	sp,	#14
      0009B2 73                    2110 	ld	(hl), e
      0009B3 F8 0F                 2111 	ldhl	sp,	#15
      0009B5 72                    2112 	ld	(hl), d
      0009B6 E1                    2113 	pop	hl
      0009B7 E5                    2114 	push	hl
      0009B8 7D                    2115 	ld	a, l
      0009B9 F8 10                 2116 	ldhl	sp,	#16
      0009BB 77                    2117 	ld	(hl), a
      0009BC E1                    2118 	pop	hl
      0009BD 7C                    2119 	ld	a, h
      0009BE F8 0F                 2120 	ldhl	sp,	#15
      0009C0 77                    2121 	ld	(hl), a
      0009C1 F8 06                 2122 	ldhl	sp,	#6
      0009C3 2A                    2123 	ld	a, (hl+)
      0009C4 66                    2124 	ld	h, (hl)
      0009C5 6F                    2125 	ld	l, a
      0009C6 E5                    2126 	push	hl
      0009C7 F8 06                 2127 	ldhl	sp,	#6
      0009C9 2A                    2128 	ld	a, (hl+)
      0009CA 66                    2129 	ld	h, (hl)
      0009CB 6F                    2130 	ld	l, a
      0009CC E5                    2131 	push	hl
      0009CD F8 16                 2132 	ldhl	sp,	#22
      0009CF 2A                    2133 	ld	a, (hl+)
      0009D0 66                    2134 	ld	h, (hl)
      0009D1 6F                    2135 	ld	l, a
      0009D2 E5                    2136 	push	hl
      0009D3 F8 16                 2137 	ldhl	sp,	#22
      0009D5 2A                    2138 	ld	a, (hl+)
      0009D6 66                    2139 	ld	h, (hl)
      0009D7 6F                    2140 	ld	l, a
      0009D8 E5                    2141 	push	hl
      0009D9 CDr00r00              2142 	call	__mullong
      0009DC E8 08                 2143 	add	sp, #8
      0009DE E5                    2144 	push	hl
      0009DF D5                    2145 	push	de
      0009E0 21 00 00              2146 	ld	hl, #0x0000
      0009E3 E5                    2147 	push	hl
      0009E4 21 0F 00              2148 	ld	hl, #0x000f
      0009E7 E5                    2149 	push	hl
      0009E8 CDr00r00              2150 	call	__mullong
      0009EB E8 08                 2151 	add	sp, #8
      0009ED E5                    2152 	push	hl
      0009EE F8 12                 2153 	ldhl	sp,	#18
      0009F0 73                    2154 	ld	(hl), e
      0009F1 F8 13                 2155 	ldhl	sp,	#19
      0009F3 72                    2156 	ld	(hl), d
      0009F4 E1                    2157 	pop	hl
      0009F5 E5                    2158 	push	hl
      0009F6 7D                    2159 	ld	a, l
      0009F7 F8 14                 2160 	ldhl	sp,	#20
      0009F9 77                    2161 	ld	(hl), a
      0009FA E1                    2162 	pop	hl
      0009FB 7C                    2163 	ld	a, h
      0009FC F8 13                 2164 	ldhl	sp,	#19
      0009FE 77                    2165 	ld	(hl), a
      0009FF F8 0C                 2166 	ldhl	sp,#12
      000A01 2A                    2167 	ld	a, (hl+)
      000A02 5F                    2168 	ld	e, a
      000A03 56                    2169 	ld	d, (hl)
      000A04 7B                    2170 	ld	a, e
      000A05 F8 10                 2171 	ldhl	sp,	#16
      000A07 96                    2172 	sub	a, (hl)
      000A08 5F                    2173 	ld	e, a
      000A09 7A                    2174 	ld	a, d
      000A0A 23                    2175 	inc	hl
      000A0B 9E                    2176 	sbc	a, (hl)
      000A0C F5                    2177 	push	af
      000A0D F8 17                 2178 	ldhl	sp,	#23
      000A0F 32                    2179 	ld	(hl-), a
      000A10 73                    2180 	ld	(hl), e
      000A11 F8 10                 2181 	ldhl	sp,#16
      000A13 2A                    2182 	ld	a, (hl+)
      000A14 5F                    2183 	ld	e, a
      000A15 56                    2184 	ld	d, (hl)
      000A16 F8 14                 2185 	ldhl	sp,	#20
      000A18 F1                    2186 	pop	af
      000A19 7B                    2187 	ld	a, e
      000A1A 9E                    2188 	sbc	a, (hl)
      000A1B 5F                    2189 	ld	e, a
      000A1C 7A                    2190 	ld	a, d
      000A1D 23                    2191 	inc	hl
      000A1E 9E                    2192 	sbc	a, (hl)
      000A1F F8 17                 2193 	ldhl	sp,	#23
      000A21 32                    2194 	ld	(hl-), a
      000A22 73                    2195 	ld	(hl), e
      000A23 F8 24                 2196 	ldhl	sp,	#36
      000A25 2A                    2197 	ld	a, (hl+)
      000A26 66                    2198 	ld	h, (hl)
      000A27 6F                    2199 	ld	l, a
      000A28 E5                    2200 	push	hl
      000A29 F8 24                 2201 	ldhl	sp,	#36
      000A2B 2A                    2202 	ld	a, (hl+)
      000A2C 66                    2203 	ld	h, (hl)
      000A2D 6F                    2204 	ld	l, a
      000A2E E5                    2205 	push	hl
      000A2F F8 0A                 2206 	ldhl	sp,	#10
      000A31 2A                    2207 	ld	a, (hl+)
      000A32 66                    2208 	ld	h, (hl)
      000A33 6F                    2209 	ld	l, a
      000A34 E5                    2210 	push	hl
      000A35 F8 0A                 2211 	ldhl	sp,	#10
      000A37 2A                    2212 	ld	a, (hl+)
      000A38 66                    2213 	ld	h, (hl)
      000A39 6F                    2214 	ld	l, a
      000A3A E5                    2215 	push	hl
      000A3B CDr00r00              2216 	call	__mullong
      000A3E E8 08                 2217 	add	sp, #8
      000A40 4D                    2218 	ld	c, l
      000A41 44                    2219 	ld	b, h
      000A42 F8 24                 2220 	ldhl	sp,	#36
      000A44 2A                    2221 	ld	a, (hl+)
      000A45 66                    2222 	ld	h, (hl)
      000A46 6F                    2223 	ld	l, a
      000A47 E5                    2224 	push	hl
      000A48 F8 24                 2225 	ldhl	sp,	#36
      000A4A 2A                    2226 	ld	a, (hl+)
      000A4B 66                    2227 	ld	h, (hl)
      000A4C 6F                    2228 	ld	l, a
      000A4D E5                    2229 	push	hl
      000A4E C5                    2230 	push	bc
      000A4F D5                    2231 	push	de
      000A50 CDr00r00              2232 	call	__mullong
      000A53 E8 08                 2233 	add	sp, #8
      000A55 E5                    2234 	push	hl
      000A56 F8 12                 2235 	ldhl	sp,	#18
      000A58 73                    2236 	ld	(hl), e
      000A59 F8 13                 2237 	ldhl	sp,	#19
      000A5B 72                    2238 	ld	(hl), d
      000A5C E1                    2239 	pop	hl
      000A5D E5                    2240 	push	hl
      000A5E 7D                    2241 	ld	a, l
      000A5F F8 14                 2242 	ldhl	sp,	#20
      000A61 77                    2243 	ld	(hl), a
      000A62 E1                    2244 	pop	hl
      000A63 7C                    2245 	ld	a, h
      000A64 F8 13                 2246 	ldhl	sp,	#19
      000A66 77                    2247 	ld	(hl), a
      000A67 F8 12                 2248 	ldhl	sp,	#18
      000A69 2A                    2249 	ld	a, (hl+)
      000A6A 66                    2250 	ld	h, (hl)
      000A6B 6F                    2251 	ld	l, a
      000A6C E5                    2252 	push	hl
      000A6D F8 12                 2253 	ldhl	sp,	#18
      000A6F 2A                    2254 	ld	a, (hl+)
      000A70 66                    2255 	ld	h, (hl)
      000A71 6F                    2256 	ld	l, a
      000A72 E5                    2257 	push	hl
      000A73 F8 06                 2258 	ldhl	sp,	#6
      000A75 2A                    2259 	ld	a, (hl+)
      000A76 66                    2260 	ld	h, (hl)
      000A77 6F                    2261 	ld	l, a
      000A78 E5                    2262 	push	hl
      000A79 F8 06                 2263 	ldhl	sp,	#6
      000A7B 2A                    2264 	ld	a, (hl+)
      000A7C 66                    2265 	ld	h, (hl)
      000A7D 6F                    2266 	ld	l, a
      000A7E E5                    2267 	push	hl
      000A7F CDr00r00              2268 	call	__mullong
      000A82 E8 08                 2269 	add	sp, #8
      000A84 E5                    2270 	push	hl
      000A85 D5                    2271 	push	de
      000A86 21 00 00              2272 	ld	hl, #0x0000
      000A89 E5                    2273 	push	hl
      000A8A 21 0F 00              2274 	ld	hl, #0x000f
      000A8D E5                    2275 	push	hl
      000A8E CDr00r00              2276 	call	__mullong
      000A91 E8 08                 2277 	add	sp, #8
      000A93 E5                    2278 	push	hl
      000A94 F8 06                 2279 	ldhl	sp,	#6
      000A96 73                    2280 	ld	(hl), e
      000A97 F8 07                 2281 	ldhl	sp,	#7
      000A99 72                    2282 	ld	(hl), d
      000A9A E1                    2283 	pop	hl
      000A9B E5                    2284 	push	hl
      000A9C 7D                    2285 	ld	a, l
      000A9D F8 08                 2286 	ldhl	sp,	#8
      000A9F 77                    2287 	ld	(hl), a
      000AA0 E1                    2288 	pop	hl
      000AA1 7C                    2289 	ld	a, h
      000AA2 F8 07                 2290 	ldhl	sp,	#7
      000AA4 77                    2291 	ld	(hl), a
      000AA5 F8 14                 2292 	ldhl	sp,#20
      000AA7 2A                    2293 	ld	a, (hl+)
      000AA8 5F                    2294 	ld	e, a
      000AA9 56                    2295 	ld	d, (hl)
      000AAA 7B                    2296 	ld	a, e
      000AAB F8 04                 2297 	ldhl	sp,	#4
      000AAD 86                    2298 	add	a, (hl)
      000AAE 5F                    2299 	ld	e, a
      000AAF 7A                    2300 	ld	a, d
      000AB0 23                    2301 	inc	hl
      000AB1 8E                    2302 	adc	a, (hl)
      000AB2 F5                    2303 	push	af
      000AB3 F8 0F                 2304 	ldhl	sp,	#15
      000AB5 32                    2305 	ld	(hl-), a
      000AB6 73                    2306 	ld	(hl), e
      000AB7 F8 18                 2307 	ldhl	sp,#24
      000AB9 2A                    2308 	ld	a, (hl+)
      000ABA 5F                    2309 	ld	e, a
      000ABB 56                    2310 	ld	d, (hl)
      000ABC F8 08                 2311 	ldhl	sp,	#8
      000ABE F1                    2312 	pop	af
      000ABF 7B                    2313 	ld	a, e
      000AC0 8E                    2314 	adc	a, (hl)
      000AC1 5F                    2315 	ld	e, a
      000AC2 7A                    2316 	ld	a, d
      000AC3 23                    2317 	inc	hl
      000AC4 8E                    2318 	adc	a, (hl)
      000AC5 F8 0F                 2319 	ldhl	sp,	#15
      000AC7 32                    2320 	ld	(hl-), a
      000AC8 73                    2321 	ld	(hl), e
      000AC9 F8 24                 2322 	ldhl	sp,	#36
      000ACB 2A                    2323 	ld	a, (hl+)
      000ACC 66                    2324 	ld	h, (hl)
      000ACD 6F                    2325 	ld	l, a
      000ACE E5                    2326 	push	hl
      000ACF F8 24                 2327 	ldhl	sp,	#36
      000AD1 2A                    2328 	ld	a, (hl+)
      000AD2 66                    2329 	ld	h, (hl)
      000AD3 6F                    2330 	ld	l, a
      000AD4 E5                    2331 	push	hl
      000AD5 F8 16                 2332 	ldhl	sp,	#22
      000AD7 2A                    2333 	ld	a, (hl+)
      000AD8 66                    2334 	ld	h, (hl)
      000AD9 6F                    2335 	ld	l, a
      000ADA E5                    2336 	push	hl
      000ADB F8 16                 2337 	ldhl	sp,	#22
      000ADD 2A                    2338 	ld	a, (hl+)
      000ADE 66                    2339 	ld	h, (hl)
      000ADF 6F                    2340 	ld	l, a
      000AE0 E5                    2341 	push	hl
      000AE1 CDr00r00              2342 	call	__mullong
      000AE4 E8 08                 2343 	add	sp, #8
      000AE6 4D                    2344 	ld	c, l
      000AE7 44                    2345 	ld	b, h
      000AE8 F8 24                 2346 	ldhl	sp,	#36
      000AEA 2A                    2347 	ld	a, (hl+)
      000AEB 66                    2348 	ld	h, (hl)
      000AEC 6F                    2349 	ld	l, a
      000AED E5                    2350 	push	hl
      000AEE F8 24                 2351 	ldhl	sp,	#36
      000AF0 2A                    2352 	ld	a, (hl+)
      000AF1 66                    2353 	ld	h, (hl)
      000AF2 6F                    2354 	ld	l, a
      000AF3 E5                    2355 	push	hl
      000AF4 C5                    2356 	push	bc
      000AF5 D5                    2357 	push	de
      000AF6 CDr00r00              2358 	call	__mullong
      000AF9 E8 08                 2359 	add	sp, #8
      000AFB E5                    2360 	push	hl
      000AFC F8 12                 2361 	ldhl	sp,	#18
      000AFE 73                    2362 	ld	(hl), e
      000AFF F8 13                 2363 	ldhl	sp,	#19
      000B01 72                    2364 	ld	(hl), d
      000B02 E1                    2365 	pop	hl
      000B03 E5                    2366 	push	hl
      000B04 7D                    2367 	ld	a, l
      000B05 F8 14                 2368 	ldhl	sp,	#20
      000B07 77                    2369 	ld	(hl), a
      000B08 E1                    2370 	pop	hl
      000B09 7C                    2371 	ld	a, h
      000B0A F8 13                 2372 	ldhl	sp,	#19
      000B0C 77                    2373 	ld	(hl), a
      000B0D F8 0C                 2374 	ldhl	sp,#12
      000B0F 2A                    2375 	ld	a, (hl+)
      000B10 5F                    2376 	ld	e, a
      000B11 56                    2377 	ld	d, (hl)
      000B12 7B                    2378 	ld	a, e
      000B13 F8 10                 2379 	ldhl	sp,	#16
      000B15 96                    2380 	sub	a, (hl)
      000B16 5F                    2381 	ld	e, a
      000B17 7A                    2382 	ld	a, d
      000B18 23                    2383 	inc	hl
      000B19 9E                    2384 	sbc	a, (hl)
      000B1A F5                    2385 	push	af
      000B1B F8 17                 2386 	ldhl	sp,	#23
      000B1D 32                    2387 	ld	(hl-), a
      000B1E 73                    2388 	ld	(hl), e
      000B1F F8 10                 2389 	ldhl	sp,#16
      000B21 2A                    2390 	ld	a, (hl+)
      000B22 5F                    2391 	ld	e, a
      000B23 56                    2392 	ld	d, (hl)
      000B24 F8 14                 2393 	ldhl	sp,	#20
      000B26 F1                    2394 	pop	af
      000B27 7B                    2395 	ld	a, e
      000B28 9E                    2396 	sbc	a, (hl)
      000B29 5F                    2397 	ld	e, a
      000B2A 7A                    2398 	ld	a, d
      000B2B 23                    2399 	inc	hl
      000B2C 9E                    2400 	sbc	a, (hl)
      000B2D F8 17                 2401 	ldhl	sp,	#23
      000B2F 32                    2402 	ld	(hl-), a
      000B30 73                    2403 	ld	(hl), e
      000B31 F8 0A                 2404 	ldhl	sp,	#10
      000B33 2A                    2405 	ld	a, (hl+)
      000B34 66                    2406 	ld	h, (hl)
      000B35 6F                    2407 	ld	l, a
      000B36 E5                    2408 	push	hl
      000B37 F8 0A                 2409 	ldhl	sp,	#10
      000B39 2A                    2410 	ld	a, (hl+)
      000B3A 66                    2411 	ld	h, (hl)
      000B3B 6F                    2412 	ld	l, a
      000B3C E5                    2413 	push	hl
      000B3D F8 1A                 2414 	ldhl	sp,	#26
      000B3F 2A                    2415 	ld	a, (hl+)
      000B40 66                    2416 	ld	h, (hl)
      000B41 6F                    2417 	ld	l, a
      000B42 E5                    2418 	push	hl
      000B43 F8 1A                 2419 	ldhl	sp,	#26
      000B45 2A                    2420 	ld	a, (hl+)
      000B46 66                    2421 	ld	h, (hl)
      000B47 6F                    2422 	ld	l, a
      000B48 E5                    2423 	push	hl
      000B49 CDr00r00              2424 	call	__divslong
      000B4C E8 08                 2425 	add	sp, #8
      000B4E E5                    2426 	push	hl
      000B4F F8 12                 2427 	ldhl	sp,	#18
      000B51 73                    2428 	ld	(hl), e
      000B52 F8 13                 2429 	ldhl	sp,	#19
      000B54 72                    2430 	ld	(hl), d
      000B55 E1                    2431 	pop	hl
      000B56 E5                    2432 	push	hl
      000B57 7D                    2433 	ld	a, l
      000B58 F8 14                 2434 	ldhl	sp,	#20
      000B5A 77                    2435 	ld	(hl), a
      000B5B E1                    2436 	pop	hl
      000B5C 7C                    2437 	ld	a, h
      000B5D F8 13                 2438 	ldhl	sp,	#19
      000B5F 77                    2439 	ld	(hl), a
      000B60 F8 10                 2440 	ldhl	sp,#16
      000B62 2A                    2441 	ld	a, (hl+)
      000B63 5F                    2442 	ld	e, a
      000B64 56                    2443 	ld	d, (hl)
      000B65 7B                    2444 	ld	a, e
      000B66 F8 26                 2445 	ldhl	sp,	#38
      000B68 86                    2446 	add	a, (hl)
      000B69 5F                    2447 	ld	e, a
      000B6A 7A                    2448 	ld	a, d
      000B6B 23                    2449 	inc	hl
      000B6C 8E                    2450 	adc	a, (hl)
      000B6D F5                    2451 	push	af
      000B6E F8 17                 2452 	ldhl	sp,	#23
      000B70 32                    2453 	ld	(hl-), a
      000B71 7B                    2454 	ld	a, e
      000B72 32                    2455 	ld	(hl-), a
      000B73 2B                    2456 	dec	hl
      000B74 2A                    2457 	ld	a, (hl+)
      000B75 5F                    2458 	ld	e, a
      000B76 56                    2459 	ld	d, (hl)
      000B77 F8 2A                 2460 	ldhl	sp,	#42
      000B79 F1                    2461 	pop	af
      000B7A 7B                    2462 	ld	a, e
      000B7B 8E                    2463 	adc	a, (hl)
      000B7C 5F                    2464 	ld	e, a
      000B7D 7A                    2465 	ld	a, d
      000B7E 23                    2466 	inc	hl
      000B7F 8E                    2467 	adc	a, (hl)
      000B80 F8 17                 2468 	ldhl	sp,	#23
      000B82 32                    2469 	ld	(hl-), a
      000B83 7B                    2470 	ld	a, e
      000B84 32                    2471 	ld	(hl-), a
      000B85 2B                    2472 	dec	hl
      000B86 2A                    2473 	ld	a, (hl+)
      000B87 5F                    2474 	ld	e, a
      000B88 2A                    2475 	ld	a, (hl+)
      000B89 57                    2476 	ld	d, a
      000B8A 2A                    2477 	ld	a, (hl+)
      000B8B 66                    2478 	ld	h, (hl)
      000B8C 6F                    2479 	ld	l, a
      000B8D 18 06                 2480 	jr	00108$
                                   2481 ;main.c:133: }
      000B8F                       2482 00107$:
                                   2483 ;main.c:134: return 0;
      000B8F 11 00 00              2484 	ld	de, #0x0000
      000B92 21 00 00              2485 	ld	hl, #0x0000
      000B95                       2486 00108$:
                                   2487 ;main.c:135: }
      000B95 E8 18                 2488 	add	sp, #24
      000B97 C9                    2489 	ret
                                   2490 ;main.c:137: long funcY(long function, long zy, long cy, long tmp) {
                                   2491 ;	---------------------------------
                                   2492 ; Function funcY
                                   2493 ; ---------------------------------
      000B98                       2494 _funcY::
      000B98 E8 E8                 2495 	add	sp, #-24
                                   2496 ;main.c:140: return (getAbs((2*tmp*zy))/factor + cy);
      000B9A F8 26                 2497 	ldhl	sp,	#38
      000B9C 2A                    2498 	ld	a, (hl+)
      000B9D 4F                    2499 	ld	c, a
      000B9E 2A                    2500 	ld	a, (hl+)
      000B9F 47                    2501 	ld	b, a
      000BA0 2A                    2502 	ld	a, (hl+)
      000BA1 5F                    2503 	ld	e, a
      000BA2 56                    2504 	ld	d, (hl)
      000BA3 CB 21                 2505 	sla	c
      000BA5 CB 10                 2506 	rl	b
      000BA7 CB 13                 2507 	rl	e
      000BA9 CB 12                 2508 	rl	d
      000BAB F8 20                 2509 	ldhl	sp,	#32
      000BAD 2A                    2510 	ld	a, (hl+)
      000BAE 66                    2511 	ld	h, (hl)
      000BAF 6F                    2512 	ld	l, a
      000BB0 E5                    2513 	push	hl
      000BB1 F8 20                 2514 	ldhl	sp,	#32
      000BB3 2A                    2515 	ld	a, (hl+)
      000BB4 66                    2516 	ld	h, (hl)
      000BB5 6F                    2517 	ld	l, a
      000BB6 E5                    2518 	push	hl
      000BB7 D5                    2519 	push	de
      000BB8 C5                    2520 	push	bc
                                   2521 ;main.c:138: switch ( function ) {
      000BB9 CDr00r00              2522 	call	__mullong
      000BBC E8 08                 2523 	add	sp, #8
      000BBE E5                    2524 	push	hl
      000BBF F8 16                 2525 	ldhl	sp,	#22
      000BC1 73                    2526 	ld	(hl), e
      000BC2 F8 17                 2527 	ldhl	sp,	#23
      000BC4 72                    2528 	ld	(hl), d
      000BC5 E1                    2529 	pop	hl
      000BC6 E5                    2530 	push	hl
      000BC7 7D                    2531 	ld	a, l
      000BC8 F8 18                 2532 	ldhl	sp,	#24
      000BCA 77                    2533 	ld	(hl), a
      000BCB E1                    2534 	pop	hl
      000BCC 7C                    2535 	ld	a, h
      000BCD F8 17                 2536 	ldhl	sp,	#23
      000BCF 77                    2537 	ld	(hl), a
      000BD0 F8 1A                 2538 	ldhl	sp,	#26
      000BD2 7E                    2539 	ld	a, (hl)
      000BD3 3D                    2540 	dec	a
      000BD4 23                    2541 	inc	hl
      000BD5 B6                    2542 	or	a, (hl)
      000BD6 23                    2543 	inc	hl
      000BD7 B6                    2544 	or	a, (hl)
      000BD8 23                    2545 	inc	hl
      000BD9 B6                    2546 	or	a, (hl)
      000BDA CArF3r0C              2547 	jp	Z,00101$
                                   2548 ;main.c:140: return (getAbs((2*tmp*zy))/factor + cy);
      000BDD FAr10r00              2549 	ld	a, (#_factor)
      000BE0 F8 00                 2550 	ldhl	sp,	#0
      000BE2 77                    2551 	ld	(hl), a
      000BE3 FAr11r00              2552 	ld	a, (#_factor + 1)
      000BE6 F8 01                 2553 	ldhl	sp,	#1
      000BE8 77                    2554 	ld	(hl), a
      000BE9 17                    2555 	rla
      000BEA 9F                    2556 	sbc	a, a
      000BEB 23                    2557 	inc	hl
      000BEC 22                    2558 	ld	(hl+), a
      000BED 77                    2559 	ld	(hl), a
                                   2560 ;main.c:138: switch ( function ) {
      000BEE F8 1A                 2561 	ldhl	sp,	#26
      000BF0 7E                    2562 	ld	a, (hl)
      000BF1 D6 02                 2563 	sub	a, #0x02
      000BF3 23                    2564 	inc	hl
      000BF4 B6                    2565 	or	a, (hl)
      000BF5 23                    2566 	inc	hl
      000BF6 B6                    2567 	or	a, (hl)
      000BF7 23                    2568 	inc	hl
      000BF8 B6                    2569 	or	a, (hl)
      000BF9 CAr84r0D              2570 	jp	Z,00102$
                                   2571 ;main.c:144: return (3*tmp*tmp*zy - zy*zy*zy)/factor + cy;
      000BFC F8 20                 2572 	ldhl	sp,	#32
      000BFE 2A                    2573 	ld	a, (hl+)
      000BFF 66                    2574 	ld	h, (hl)
      000C00 6F                    2575 	ld	l, a
      000C01 E5                    2576 	push	hl
      000C02 F8 20                 2577 	ldhl	sp,	#32
      000C04 2A                    2578 	ld	a, (hl+)
      000C05 66                    2579 	ld	h, (hl)
      000C06 6F                    2580 	ld	l, a
      000C07 E5                    2581 	push	hl
      000C08 F8 24                 2582 	ldhl	sp,	#36
      000C0A 2A                    2583 	ld	a, (hl+)
      000C0B 66                    2584 	ld	h, (hl)
      000C0C 6F                    2585 	ld	l, a
      000C0D E5                    2586 	push	hl
      000C0E F8 24                 2587 	ldhl	sp,	#36
      000C10 2A                    2588 	ld	a, (hl+)
      000C11 66                    2589 	ld	h, (hl)
      000C12 6F                    2590 	ld	l, a
      000C13 E5                    2591 	push	hl
      000C14 CDr00r00              2592 	call	__mullong
      000C17 E8 08                 2593 	add	sp, #8
      000C19 E5                    2594 	push	hl
      000C1A F8 12                 2595 	ldhl	sp,	#18
      000C1C 73                    2596 	ld	(hl), e
      000C1D F8 13                 2597 	ldhl	sp,	#19
      000C1F 72                    2598 	ld	(hl), d
      000C20 E1                    2599 	pop	hl
      000C21 E5                    2600 	push	hl
      000C22 7D                    2601 	ld	a, l
      000C23 F8 14                 2602 	ldhl	sp,	#20
      000C25 77                    2603 	ld	(hl), a
      000C26 E1                    2604 	pop	hl
      000C27 7C                    2605 	ld	a, h
      000C28 F8 13                 2606 	ldhl	sp,	#19
      000C2A 77                    2607 	ld	(hl), a
      000C2B F8 20                 2608 	ldhl	sp,	#32
      000C2D 2A                    2609 	ld	a, (hl+)
      000C2E 66                    2610 	ld	h, (hl)
      000C2F 6F                    2611 	ld	l, a
      000C30 E5                    2612 	push	hl
      000C31 F8 20                 2613 	ldhl	sp,	#32
      000C33 2A                    2614 	ld	a, (hl+)
      000C34 66                    2615 	ld	h, (hl)
      000C35 6F                    2616 	ld	l, a
      000C36 E5                    2617 	push	hl
      000C37 F8 16                 2618 	ldhl	sp,	#22
      000C39 2A                    2619 	ld	a, (hl+)
      000C3A 66                    2620 	ld	h, (hl)
      000C3B 6F                    2621 	ld	l, a
      000C3C E5                    2622 	push	hl
      000C3D F8 16                 2623 	ldhl	sp,	#22
      000C3F 2A                    2624 	ld	a, (hl+)
      000C40 66                    2625 	ld	h, (hl)
      000C41 6F                    2626 	ld	l, a
      000C42 E5                    2627 	push	hl
                                   2628 ;main.c:138: switch ( function ) {
      000C43 CDr00r00              2629 	call	__mullong
      000C46 E8 08                 2630 	add	sp, #8
      000C48 E5                    2631 	push	hl
      000C49 F8 16                 2632 	ldhl	sp,	#22
      000C4B 73                    2633 	ld	(hl), e
      000C4C F8 17                 2634 	ldhl	sp,	#23
      000C4E 72                    2635 	ld	(hl), d
      000C4F E1                    2636 	pop	hl
      000C50 E5                    2637 	push	hl
      000C51 7D                    2638 	ld	a, l
      000C52 F8 18                 2639 	ldhl	sp,	#24
      000C54 77                    2640 	ld	(hl), a
      000C55 E1                    2641 	pop	hl
      000C56 7C                    2642 	ld	a, h
      000C57 F8 17                 2643 	ldhl	sp,	#23
      000C59 77                    2644 	ld	(hl), a
      000C5A F8 1A                 2645 	ldhl	sp,	#26
      000C5C 7E                    2646 	ld	a, (hl)
      000C5D D6 03                 2647 	sub	a, #0x03
      000C5F 23                    2648 	inc	hl
      000C60 B6                    2649 	or	a, (hl)
      000C61 23                    2650 	inc	hl
      000C62 B6                    2651 	or	a, (hl)
      000C63 23                    2652 	inc	hl
      000C64 B6                    2653 	or	a, (hl)
      000C65 CArE1r0D              2654 	jp	Z,00103$
                                   2655 ;main.c:146: return (4*tmp*zy*(tmp*tmp - zy*zy))/factor + cy;
      000C68 F8 28                 2656 	ldhl	sp,	#40
      000C6A 2A                    2657 	ld	a, (hl+)
      000C6B 66                    2658 	ld	h, (hl)
      000C6C 6F                    2659 	ld	l, a
      000C6D E5                    2660 	push	hl
      000C6E F8 28                 2661 	ldhl	sp,	#40
      000C70 2A                    2662 	ld	a, (hl+)
      000C71 66                    2663 	ld	h, (hl)
      000C72 6F                    2664 	ld	l, a
      000C73 E5                    2665 	push	hl
      000C74 F8 2C                 2666 	ldhl	sp,	#44
      000C76 2A                    2667 	ld	a, (hl+)
      000C77 66                    2668 	ld	h, (hl)
      000C78 6F                    2669 	ld	l, a
      000C79 E5                    2670 	push	hl
      000C7A F8 2C                 2671 	ldhl	sp,	#44
      000C7C 2A                    2672 	ld	a, (hl+)
      000C7D 66                    2673 	ld	h, (hl)
      000C7E 6F                    2674 	ld	l, a
      000C7F E5                    2675 	push	hl
                                   2676 ;main.c:138: switch ( function ) {
      000C80 CDr00r00              2677 	call	__mullong
      000C83 E8 08                 2678 	add	sp, #8
      000C85 E5                    2679 	push	hl
      000C86 F8 06                 2680 	ldhl	sp,	#6
      000C88 73                    2681 	ld	(hl), e
      000C89 F8 07                 2682 	ldhl	sp,	#7
      000C8B 72                    2683 	ld	(hl), d
      000C8C E1                    2684 	pop	hl
      000C8D E5                    2685 	push	hl
      000C8E 7D                    2686 	ld	a, l
      000C8F F8 08                 2687 	ldhl	sp,	#8
      000C91 77                    2688 	ld	(hl), a
      000C92 E1                    2689 	pop	hl
      000C93 7C                    2690 	ld	a, h
      000C94 F8 07                 2691 	ldhl	sp,	#7
      000C96 77                    2692 	ld	(hl), a
      000C97 F8 1A                 2693 	ldhl	sp,	#26
      000C99 7E                    2694 	ld	a, (hl)
      000C9A D6 04                 2695 	sub	a, #0x04
      000C9C 23                    2696 	inc	hl
      000C9D B6                    2697 	or	a, (hl)
      000C9E 23                    2698 	inc	hl
      000C9F B6                    2699 	or	a, (hl)
      000CA0 23                    2700 	inc	hl
      000CA1 B6                    2701 	or	a, (hl)
      000CA2 CArEBr0E              2702 	jp	Z,00104$
                                   2703 ;main.c:148: return (zy*(5*tmp*tmp*(tmp*tmp - 2*zy*zy) + zy*zy*zy*zy))/factor + cy;
      000CA5 F8 20                 2704 	ldhl	sp,	#32
      000CA7 2A                    2705 	ld	a, (hl+)
      000CA8 66                    2706 	ld	h, (hl)
      000CA9 6F                    2707 	ld	l, a
      000CAA E5                    2708 	push	hl
      000CAB F8 20                 2709 	ldhl	sp,	#32
      000CAD 2A                    2710 	ld	a, (hl+)
      000CAE 66                    2711 	ld	h, (hl)
      000CAF 6F                    2712 	ld	l, a
      000CB0 E5                    2713 	push	hl
      000CB1 F8 1A                 2714 	ldhl	sp,	#26
      000CB3 2A                    2715 	ld	a, (hl+)
      000CB4 66                    2716 	ld	h, (hl)
      000CB5 6F                    2717 	ld	l, a
      000CB6 E5                    2718 	push	hl
      000CB7 F8 1A                 2719 	ldhl	sp,	#26
      000CB9 2A                    2720 	ld	a, (hl+)
      000CBA 66                    2721 	ld	h, (hl)
      000CBB 6F                    2722 	ld	l, a
      000CBC E5                    2723 	push	hl
                                   2724 ;main.c:138: switch ( function ) {
      000CBD CDr00r00              2725 	call	__mullong
      000CC0 E8 08                 2726 	add	sp, #8
      000CC2 E5                    2727 	push	hl
      000CC3 F8 0A                 2728 	ldhl	sp,	#10
      000CC5 73                    2729 	ld	(hl), e
      000CC6 F8 0B                 2730 	ldhl	sp,	#11
      000CC8 72                    2731 	ld	(hl), d
      000CC9 E1                    2732 	pop	hl
      000CCA E5                    2733 	push	hl
      000CCB 7D                    2734 	ld	a, l
      000CCC F8 0C                 2735 	ldhl	sp,	#12
      000CCE 77                    2736 	ld	(hl), a
      000CCF E1                    2737 	pop	hl
      000CD0 7C                    2738 	ld	a, h
      000CD1 F8 0B                 2739 	ldhl	sp,	#11
      000CD3 77                    2740 	ld	(hl), a
      000CD4 F8 1A                 2741 	ldhl	sp,	#26
      000CD6 7E                    2742 	ld	a, (hl)
      000CD7 D6 05                 2743 	sub	a, #0x05
      000CD9 23                    2744 	inc	hl
      000CDA B6                    2745 	or	a, (hl)
      000CDB 23                    2746 	inc	hl
      000CDC B6                    2747 	or	a, (hl)
      000CDD 23                    2748 	inc	hl
      000CDE B6                    2749 	or	a, (hl)
      000CDF CArBCr0F              2750 	jp	Z,00105$
      000CE2 F8 1A                 2751 	ldhl	sp,	#26
      000CE4 7E                    2752 	ld	a, (hl)
      000CE5 D6 06                 2753 	sub	a, #0x06
      000CE7 23                    2754 	inc	hl
      000CE8 B6                    2755 	or	a, (hl)
      000CE9 23                    2756 	inc	hl
      000CEA B6                    2757 	or	a, (hl)
      000CEB 23                    2758 	inc	hl
      000CEC B6                    2759 	or	a, (hl)
      000CED CAr18r11              2760 	jp	Z,00106$
      000CF0 C3r00r13              2761 	jp	00107$
                                   2762 ;main.c:139: case 1:
      000CF3                       2763 00101$:
                                   2764 ;main.c:140: return (getAbs((2*tmp*zy))/factor + cy);
      000CF3 F8 16                 2765 	ldhl	sp,	#22
      000CF5 2A                    2766 	ld	a, (hl+)
      000CF6 66                    2767 	ld	h, (hl)
      000CF7 6F                    2768 	ld	l, a
      000CF8 E5                    2769 	push	hl
      000CF9 F8 16                 2770 	ldhl	sp,	#22
      000CFB 2A                    2771 	ld	a, (hl+)
      000CFC 66                    2772 	ld	h, (hl)
      000CFD 6F                    2773 	ld	l, a
      000CFE E5                    2774 	push	hl
      000CFF CDr2Br00              2775 	call	_getAbs
      000D02 E8 04                 2776 	add	sp, #4
      000D04 E5                    2777 	push	hl
      000D05 F8 12                 2778 	ldhl	sp,	#18
      000D07 73                    2779 	ld	(hl), e
      000D08 F8 13                 2780 	ldhl	sp,	#19
      000D0A 72                    2781 	ld	(hl), d
      000D0B E1                    2782 	pop	hl
      000D0C E5                    2783 	push	hl
      000D0D 7D                    2784 	ld	a, l
      000D0E F8 14                 2785 	ldhl	sp,	#20
      000D10 77                    2786 	ld	(hl), a
      000D11 E1                    2787 	pop	hl
      000D12 7C                    2788 	ld	a, h
      000D13 F8 13                 2789 	ldhl	sp,	#19
      000D15 77                    2790 	ld	(hl), a
      000D16 FAr10r00              2791 	ld	a, (#_factor)
      000D19 F8 14                 2792 	ldhl	sp,	#20
      000D1B 77                    2793 	ld	(hl), a
      000D1C FAr11r00              2794 	ld	a, (#_factor + 1)
      000D1F F8 15                 2795 	ldhl	sp,	#21
      000D21 77                    2796 	ld	(hl), a
      000D22 17                    2797 	rla
      000D23 9F                    2798 	sbc	a, a
      000D24 23                    2799 	inc	hl
      000D25 22                    2800 	ld	(hl+), a
      000D26 32                    2801 	ld	(hl-), a
      000D27 2A                    2802 	ld	a, (hl+)
      000D28 66                    2803 	ld	h, (hl)
      000D29 6F                    2804 	ld	l, a
      000D2A E5                    2805 	push	hl
      000D2B F8 16                 2806 	ldhl	sp,	#22
      000D2D 2A                    2807 	ld	a, (hl+)
      000D2E 66                    2808 	ld	h, (hl)
      000D2F 6F                    2809 	ld	l, a
      000D30 E5                    2810 	push	hl
      000D31 F8 16                 2811 	ldhl	sp,	#22
      000D33 2A                    2812 	ld	a, (hl+)
      000D34 66                    2813 	ld	h, (hl)
      000D35 6F                    2814 	ld	l, a
      000D36 E5                    2815 	push	hl
      000D37 F8 16                 2816 	ldhl	sp,	#22
      000D39 2A                    2817 	ld	a, (hl+)
      000D3A 66                    2818 	ld	h, (hl)
      000D3B 6F                    2819 	ld	l, a
      000D3C E5                    2820 	push	hl
      000D3D CDr00r00              2821 	call	__divslong
      000D40 E8 08                 2822 	add	sp, #8
      000D42 E5                    2823 	push	hl
      000D43 F8 12                 2824 	ldhl	sp,	#18
      000D45 73                    2825 	ld	(hl), e
      000D46 F8 13                 2826 	ldhl	sp,	#19
      000D48 72                    2827 	ld	(hl), d
      000D49 E1                    2828 	pop	hl
      000D4A E5                    2829 	push	hl
      000D4B 7D                    2830 	ld	a, l
      000D4C F8 14                 2831 	ldhl	sp,	#20
      000D4E 77                    2832 	ld	(hl), a
      000D4F E1                    2833 	pop	hl
      000D50 7C                    2834 	ld	a, h
      000D51 F8 13                 2835 	ldhl	sp,	#19
      000D53 77                    2836 	ld	(hl), a
      000D54 F8 10                 2837 	ldhl	sp,#16
      000D56 2A                    2838 	ld	a, (hl+)
      000D57 5F                    2839 	ld	e, a
      000D58 56                    2840 	ld	d, (hl)
      000D59 7B                    2841 	ld	a, e
      000D5A F8 22                 2842 	ldhl	sp,	#34
      000D5C 86                    2843 	add	a, (hl)
      000D5D 5F                    2844 	ld	e, a
      000D5E 7A                    2845 	ld	a, d
      000D5F 23                    2846 	inc	hl
      000D60 8E                    2847 	adc	a, (hl)
      000D61 F5                    2848 	push	af
      000D62 F8 17                 2849 	ldhl	sp,	#23
      000D64 32                    2850 	ld	(hl-), a
      000D65 7B                    2851 	ld	a, e
      000D66 32                    2852 	ld	(hl-), a
      000D67 2B                    2853 	dec	hl
      000D68 2A                    2854 	ld	a, (hl+)
      000D69 5F                    2855 	ld	e, a
      000D6A 56                    2856 	ld	d, (hl)
      000D6B F8 26                 2857 	ldhl	sp,	#38
      000D6D F1                    2858 	pop	af
      000D6E 7B                    2859 	ld	a, e
      000D6F 8E                    2860 	adc	a, (hl)
      000D70 5F                    2861 	ld	e, a
      000D71 7A                    2862 	ld	a, d
      000D72 23                    2863 	inc	hl
      000D73 8E                    2864 	adc	a, (hl)
      000D74 F8 17                 2865 	ldhl	sp,	#23
      000D76 32                    2866 	ld	(hl-), a
      000D77 7B                    2867 	ld	a, e
      000D78 32                    2868 	ld	(hl-), a
      000D79 2B                    2869 	dec	hl
      000D7A 2A                    2870 	ld	a, (hl+)
      000D7B 5F                    2871 	ld	e, a
      000D7C 2A                    2872 	ld	a, (hl+)
      000D7D 57                    2873 	ld	d, a
      000D7E 2A                    2874 	ld	a, (hl+)
      000D7F 66                    2875 	ld	h, (hl)
      000D80 6F                    2876 	ld	l, a
      000D81 C3r06r13              2877 	jp	00108$
                                   2878 ;main.c:141: case 2:
      000D84                       2879 00102$:
                                   2880 ;main.c:142: return 2*tmp*zy/factor + cy;
      000D84 C1                    2881 	pop	bc
      000D85 E1                    2882 	pop	hl
      000D86 E5                    2883 	push	hl
      000D87 C5                    2884 	push	bc
      000D88 4D                    2885 	ld	c, l
      000D89 44                    2886 	ld	b, h
      000D8A E1                    2887 	pop	hl
      000D8B E5                    2888 	push	hl
      000D8C C5                    2889 	push	bc
      000D8D E5                    2890 	push	hl
      000D8E F8 1A                 2891 	ldhl	sp,	#26
      000D90 2A                    2892 	ld	a, (hl+)
      000D91 66                    2893 	ld	h, (hl)
      000D92 6F                    2894 	ld	l, a
      000D93 E5                    2895 	push	hl
      000D94 F8 1A                 2896 	ldhl	sp,	#26
      000D96 2A                    2897 	ld	a, (hl+)
      000D97 66                    2898 	ld	h, (hl)
      000D98 6F                    2899 	ld	l, a
      000D99 E5                    2900 	push	hl
      000D9A CDr00r00              2901 	call	__divslong
      000D9D E8 08                 2902 	add	sp, #8
      000D9F E5                    2903 	push	hl
      000DA0 F8 12                 2904 	ldhl	sp,	#18
      000DA2 73                    2905 	ld	(hl), e
      000DA3 F8 13                 2906 	ldhl	sp,	#19
      000DA5 72                    2907 	ld	(hl), d
      000DA6 E1                    2908 	pop	hl
      000DA7 E5                    2909 	push	hl
      000DA8 7D                    2910 	ld	a, l
      000DA9 F8 14                 2911 	ldhl	sp,	#20
      000DAB 77                    2912 	ld	(hl), a
      000DAC E1                    2913 	pop	hl
      000DAD 7C                    2914 	ld	a, h
      000DAE F8 13                 2915 	ldhl	sp,	#19
      000DB0 77                    2916 	ld	(hl), a
      000DB1 F8 10                 2917 	ldhl	sp,#16
      000DB3 2A                    2918 	ld	a, (hl+)
      000DB4 5F                    2919 	ld	e, a
      000DB5 56                    2920 	ld	d, (hl)
      000DB6 7B                    2921 	ld	a, e
      000DB7 F8 22                 2922 	ldhl	sp,	#34
      000DB9 86                    2923 	add	a, (hl)
      000DBA 5F                    2924 	ld	e, a
      000DBB 7A                    2925 	ld	a, d
      000DBC 23                    2926 	inc	hl
      000DBD 8E                    2927 	adc	a, (hl)
      000DBE F5                    2928 	push	af
      000DBF F8 17                 2929 	ldhl	sp,	#23
      000DC1 32                    2930 	ld	(hl-), a
      000DC2 7B                    2931 	ld	a, e
      000DC3 32                    2932 	ld	(hl-), a
      000DC4 2B                    2933 	dec	hl
      000DC5 2A                    2934 	ld	a, (hl+)
      000DC6 5F                    2935 	ld	e, a
      000DC7 56                    2936 	ld	d, (hl)
      000DC8 F8 26                 2937 	ldhl	sp,	#38
      000DCA F1                    2938 	pop	af
      000DCB 7B                    2939 	ld	a, e
      000DCC 8E                    2940 	adc	a, (hl)
      000DCD 5F                    2941 	ld	e, a
      000DCE 7A                    2942 	ld	a, d
      000DCF 23                    2943 	inc	hl
      000DD0 8E                    2944 	adc	a, (hl)
      000DD1 F8 17                 2945 	ldhl	sp,	#23
      000DD3 32                    2946 	ld	(hl-), a
      000DD4 7B                    2947 	ld	a, e
      000DD5 32                    2948 	ld	(hl-), a
      000DD6 2B                    2949 	dec	hl
      000DD7 2A                    2950 	ld	a, (hl+)
      000DD8 5F                    2951 	ld	e, a
      000DD9 2A                    2952 	ld	a, (hl+)
      000DDA 57                    2953 	ld	d, a
      000DDB 2A                    2954 	ld	a, (hl+)
      000DDC 66                    2955 	ld	h, (hl)
      000DDD 6F                    2956 	ld	l, a
      000DDE C3r06r13              2957 	jp	00108$
                                   2958 ;main.c:143: case 3:
      000DE1                       2959 00103$:
                                   2960 ;main.c:144: return (3*tmp*tmp*zy - zy*zy*zy)/factor + cy;
      000DE1 F8 28                 2961 	ldhl	sp,	#40
      000DE3 2A                    2962 	ld	a, (hl+)
      000DE4 66                    2963 	ld	h, (hl)
      000DE5 6F                    2964 	ld	l, a
      000DE6 E5                    2965 	push	hl
      000DE7 F8 28                 2966 	ldhl	sp,	#40
      000DE9 2A                    2967 	ld	a, (hl+)
      000DEA 66                    2968 	ld	h, (hl)
      000DEB 6F                    2969 	ld	l, a
      000DEC E5                    2970 	push	hl
      000DED 21 00 00              2971 	ld	hl, #0x0000
      000DF0 E5                    2972 	push	hl
      000DF1 21 03 00              2973 	ld	hl, #0x0003
      000DF4 E5                    2974 	push	hl
      000DF5 CDr00r00              2975 	call	__mullong
      000DF8 E8 08                 2976 	add	sp, #8
      000DFA E5                    2977 	push	hl
      000DFB F8 12                 2978 	ldhl	sp,	#18
      000DFD 73                    2979 	ld	(hl), e
      000DFE F8 13                 2980 	ldhl	sp,	#19
      000E00 72                    2981 	ld	(hl), d
      000E01 E1                    2982 	pop	hl
      000E02 E5                    2983 	push	hl
      000E03 7D                    2984 	ld	a, l
      000E04 F8 14                 2985 	ldhl	sp,	#20
      000E06 77                    2986 	ld	(hl), a
      000E07 E1                    2987 	pop	hl
      000E08 7C                    2988 	ld	a, h
      000E09 F8 13                 2989 	ldhl	sp,	#19
      000E0B 77                    2990 	ld	(hl), a
      000E0C F8 28                 2991 	ldhl	sp,	#40
      000E0E 2A                    2992 	ld	a, (hl+)
      000E0F 66                    2993 	ld	h, (hl)
      000E10 6F                    2994 	ld	l, a
      000E11 E5                    2995 	push	hl
      000E12 F8 28                 2996 	ldhl	sp,	#40
      000E14 2A                    2997 	ld	a, (hl+)
      000E15 66                    2998 	ld	h, (hl)
      000E16 6F                    2999 	ld	l, a
      000E17 E5                    3000 	push	hl
      000E18 F8 16                 3001 	ldhl	sp,	#22
      000E1A 2A                    3002 	ld	a, (hl+)
      000E1B 66                    3003 	ld	h, (hl)
      000E1C 6F                    3004 	ld	l, a
      000E1D E5                    3005 	push	hl
      000E1E F8 16                 3006 	ldhl	sp,	#22
      000E20 2A                    3007 	ld	a, (hl+)
      000E21 66                    3008 	ld	h, (hl)
      000E22 6F                    3009 	ld	l, a
      000E23 E5                    3010 	push	hl
      000E24 CDr00r00              3011 	call	__mullong
      000E27 E8 08                 3012 	add	sp, #8
      000E29 E5                    3013 	push	hl
      000E2A F8 12                 3014 	ldhl	sp,	#18
      000E2C 73                    3015 	ld	(hl), e
      000E2D F8 13                 3016 	ldhl	sp,	#19
      000E2F 72                    3017 	ld	(hl), d
      000E30 E1                    3018 	pop	hl
      000E31 E5                    3019 	push	hl
      000E32 7D                    3020 	ld	a, l
      000E33 F8 14                 3021 	ldhl	sp,	#20
      000E35 77                    3022 	ld	(hl), a
      000E36 E1                    3023 	pop	hl
      000E37 7C                    3024 	ld	a, h
      000E38 F8 13                 3025 	ldhl	sp,	#19
      000E3A 77                    3026 	ld	(hl), a
      000E3B F8 20                 3027 	ldhl	sp,	#32
      000E3D 2A                    3028 	ld	a, (hl+)
      000E3E 66                    3029 	ld	h, (hl)
      000E3F 6F                    3030 	ld	l, a
      000E40 E5                    3031 	push	hl
      000E41 F8 20                 3032 	ldhl	sp,	#32
      000E43 2A                    3033 	ld	a, (hl+)
      000E44 66                    3034 	ld	h, (hl)
      000E45 6F                    3035 	ld	l, a
      000E46 E5                    3036 	push	hl
      000E47 F8 16                 3037 	ldhl	sp,	#22
      000E49 2A                    3038 	ld	a, (hl+)
      000E4A 66                    3039 	ld	h, (hl)
      000E4B 6F                    3040 	ld	l, a
      000E4C E5                    3041 	push	hl
      000E4D F8 16                 3042 	ldhl	sp,	#22
      000E4F 2A                    3043 	ld	a, (hl+)
      000E50 66                    3044 	ld	h, (hl)
      000E51 6F                    3045 	ld	l, a
      000E52 E5                    3046 	push	hl
      000E53 CDr00r00              3047 	call	__mullong
      000E56 E8 08                 3048 	add	sp, #8
      000E58 E5                    3049 	push	hl
      000E59 F8 0E                 3050 	ldhl	sp,	#14
      000E5B 73                    3051 	ld	(hl), e
      000E5C F8 0F                 3052 	ldhl	sp,	#15
      000E5E 72                    3053 	ld	(hl), d
      000E5F E1                    3054 	pop	hl
      000E60 E5                    3055 	push	hl
      000E61 7D                    3056 	ld	a, l
      000E62 F8 10                 3057 	ldhl	sp,	#16
      000E64 77                    3058 	ld	(hl), a
      000E65 E1                    3059 	pop	hl
      000E66 7C                    3060 	ld	a, h
      000E67 F8 0F                 3061 	ldhl	sp,	#15
      000E69 77                    3062 	ld	(hl), a
      000E6A F8 0C                 3063 	ldhl	sp,#12
      000E6C 2A                    3064 	ld	a, (hl+)
      000E6D 5F                    3065 	ld	e, a
      000E6E 56                    3066 	ld	d, (hl)
      000E6F 7B                    3067 	ld	a, e
      000E70 F8 14                 3068 	ldhl	sp,	#20
      000E72 96                    3069 	sub	a, (hl)
      000E73 5F                    3070 	ld	e, a
      000E74 7A                    3071 	ld	a, d
      000E75 23                    3072 	inc	hl
      000E76 9E                    3073 	sbc	a, (hl)
      000E77 F5                    3074 	push	af
      000E78 F8 13                 3075 	ldhl	sp,	#19
      000E7A 32                    3076 	ld	(hl-), a
      000E7B 7B                    3077 	ld	a, e
      000E7C 32                    3078 	ld	(hl-), a
      000E7D 2B                    3079 	dec	hl
      000E7E 2A                    3080 	ld	a, (hl+)
      000E7F 5F                    3081 	ld	e, a
      000E80 56                    3082 	ld	d, (hl)
      000E81 F8 18                 3083 	ldhl	sp,	#24
      000E83 F1                    3084 	pop	af
      000E84 7B                    3085 	ld	a, e
      000E85 9E                    3086 	sbc	a, (hl)
      000E86 5F                    3087 	ld	e, a
      000E87 7A                    3088 	ld	a, d
      000E88 23                    3089 	inc	hl
      000E89 9E                    3090 	sbc	a, (hl)
      000E8A F8 13                 3091 	ldhl	sp,	#19
      000E8C 32                    3092 	ld	(hl-), a
      000E8D 73                    3093 	ld	(hl), e
      000E8E C1                    3094 	pop	bc
      000E8F E1                    3095 	pop	hl
      000E90 E5                    3096 	push	hl
      000E91 C5                    3097 	push	bc
      000E92 4D                    3098 	ld	c, l
      000E93 44                    3099 	ld	b, h
      000E94 E1                    3100 	pop	hl
      000E95 E5                    3101 	push	hl
      000E96 C5                    3102 	push	bc
      000E97 E5                    3103 	push	hl
      000E98 F8 16                 3104 	ldhl	sp,	#22
      000E9A 2A                    3105 	ld	a, (hl+)
      000E9B 66                    3106 	ld	h, (hl)
      000E9C 6F                    3107 	ld	l, a
      000E9D E5                    3108 	push	hl
      000E9E F8 16                 3109 	ldhl	sp,	#22
      000EA0 2A                    3110 	ld	a, (hl+)
      000EA1 66                    3111 	ld	h, (hl)
      000EA2 6F                    3112 	ld	l, a
      000EA3 E5                    3113 	push	hl
      000EA4 CDr00r00              3114 	call	__divslong
      000EA7 E8 08                 3115 	add	sp, #8
      000EA9 E5                    3116 	push	hl
      000EAA F8 12                 3117 	ldhl	sp,	#18
      000EAC 73                    3118 	ld	(hl), e
      000EAD F8 13                 3119 	ldhl	sp,	#19
      000EAF 72                    3120 	ld	(hl), d
      000EB0 E1                    3121 	pop	hl
      000EB1 E5                    3122 	push	hl
      000EB2 7D                    3123 	ld	a, l
      000EB3 F8 14                 3124 	ldhl	sp,	#20
      000EB5 77                    3125 	ld	(hl), a
      000EB6 E1                    3126 	pop	hl
      000EB7 7C                    3127 	ld	a, h
      000EB8 F8 13                 3128 	ldhl	sp,	#19
      000EBA 77                    3129 	ld	(hl), a
      000EBB F8 10                 3130 	ldhl	sp,#16
      000EBD 2A                    3131 	ld	a, (hl+)
      000EBE 5F                    3132 	ld	e, a
      000EBF 56                    3133 	ld	d, (hl)
      000EC0 7B                    3134 	ld	a, e
      000EC1 F8 22                 3135 	ldhl	sp,	#34
      000EC3 86                    3136 	add	a, (hl)
      000EC4 5F                    3137 	ld	e, a
      000EC5 7A                    3138 	ld	a, d
      000EC6 23                    3139 	inc	hl
      000EC7 8E                    3140 	adc	a, (hl)
      000EC8 F5                    3141 	push	af
      000EC9 F8 17                 3142 	ldhl	sp,	#23
      000ECB 32                    3143 	ld	(hl-), a
      000ECC 7B                    3144 	ld	a, e
      000ECD 32                    3145 	ld	(hl-), a
      000ECE 2B                    3146 	dec	hl
      000ECF 2A                    3147 	ld	a, (hl+)
      000ED0 5F                    3148 	ld	e, a
      000ED1 56                    3149 	ld	d, (hl)
      000ED2 F8 26                 3150 	ldhl	sp,	#38
      000ED4 F1                    3151 	pop	af
      000ED5 7B                    3152 	ld	a, e
      000ED6 8E                    3153 	adc	a, (hl)
      000ED7 5F                    3154 	ld	e, a
      000ED8 7A                    3155 	ld	a, d
      000ED9 23                    3156 	inc	hl
      000EDA 8E                    3157 	adc	a, (hl)
      000EDB F8 17                 3158 	ldhl	sp,	#23
      000EDD 32                    3159 	ld	(hl-), a
      000EDE 7B                    3160 	ld	a, e
      000EDF 32                    3161 	ld	(hl-), a
      000EE0 2B                    3162 	dec	hl
      000EE1 2A                    3163 	ld	a, (hl+)
      000EE2 5F                    3164 	ld	e, a
      000EE3 2A                    3165 	ld	a, (hl+)
      000EE4 57                    3166 	ld	d, a
      000EE5 2A                    3167 	ld	a, (hl+)
      000EE6 66                    3168 	ld	h, (hl)
      000EE7 6F                    3169 	ld	l, a
      000EE8 C3r06r13              3170 	jp	00108$
                                   3171 ;main.c:145: case 4:
      000EEB                       3172 00104$:
                                   3173 ;main.c:146: return (4*tmp*zy*(tmp*tmp - zy*zy))/factor + cy;
      000EEB F8 26                 3174 	ldhl	sp,	#38
      000EED 2A                    3175 	ld	a, (hl+)
      000EEE 4F                    3176 	ld	c, a
      000EEF 2A                    3177 	ld	a, (hl+)
      000EF0 47                    3178 	ld	b, a
      000EF1 2A                    3179 	ld	a, (hl+)
      000EF2 5F                    3180 	ld	e, a
      000EF3 56                    3181 	ld	d, (hl)
      000EF4 3E 02                 3182 	ld	a, #0x02
      000EF6                       3183 00148$:
      000EF6 CB 21                 3184 	sla	c
      000EF8 CB 10                 3185 	rl	b
      000EFA CB 13                 3186 	rl	e
      000EFC CB 12                 3187 	rl	d
      000EFE 3D                    3188 	dec	a
      000EFF 20 F5                 3189 	jr	NZ,00148$
      000F01 F8 20                 3190 	ldhl	sp,	#32
      000F03 2A                    3191 	ld	a, (hl+)
      000F04 66                    3192 	ld	h, (hl)
      000F05 6F                    3193 	ld	l, a
      000F06 E5                    3194 	push	hl
      000F07 F8 20                 3195 	ldhl	sp,	#32
      000F09 2A                    3196 	ld	a, (hl+)
      000F0A 66                    3197 	ld	h, (hl)
      000F0B 6F                    3198 	ld	l, a
      000F0C E5                    3199 	push	hl
      000F0D D5                    3200 	push	de
      000F0E C5                    3201 	push	bc
      000F0F CDr00r00              3202 	call	__mullong
      000F12 E8 08                 3203 	add	sp, #8
      000F14 E5                    3204 	push	hl
      000F15 F8 0E                 3205 	ldhl	sp,	#14
      000F17 73                    3206 	ld	(hl), e
      000F18 F8 0F                 3207 	ldhl	sp,	#15
      000F1A 72                    3208 	ld	(hl), d
      000F1B E1                    3209 	pop	hl
      000F1C E5                    3210 	push	hl
      000F1D 7D                    3211 	ld	a, l
      000F1E F8 10                 3212 	ldhl	sp,	#16
      000F20 77                    3213 	ld	(hl), a
      000F21 E1                    3214 	pop	hl
      000F22 7C                    3215 	ld	a, h
      000F23 F8 0F                 3216 	ldhl	sp,	#15
      000F25 77                    3217 	ld	(hl), a
      000F26 F8 04                 3218 	ldhl	sp,#4
      000F28 2A                    3219 	ld	a, (hl+)
      000F29 5F                    3220 	ld	e, a
      000F2A 56                    3221 	ld	d, (hl)
      000F2B 7B                    3222 	ld	a, e
      000F2C F8 10                 3223 	ldhl	sp,	#16
      000F2E 96                    3224 	sub	a, (hl)
      000F2F 5F                    3225 	ld	e, a
      000F30 7A                    3226 	ld	a, d
      000F31 23                    3227 	inc	hl
      000F32 9E                    3228 	sbc	a, (hl)
      000F33 F5                    3229 	push	af
      000F34 F8 17                 3230 	ldhl	sp,	#23
      000F36 32                    3231 	ld	(hl-), a
      000F37 73                    3232 	ld	(hl), e
      000F38 F8 08                 3233 	ldhl	sp,#8
      000F3A 2A                    3234 	ld	a, (hl+)
      000F3B 5F                    3235 	ld	e, a
      000F3C 56                    3236 	ld	d, (hl)
      000F3D F8 14                 3237 	ldhl	sp,	#20
      000F3F F1                    3238 	pop	af
      000F40 7B                    3239 	ld	a, e
      000F41 9E                    3240 	sbc	a, (hl)
      000F42 5F                    3241 	ld	e, a
      000F43 7A                    3242 	ld	a, d
      000F44 23                    3243 	inc	hl
      000F45 9E                    3244 	sbc	a, (hl)
      000F46 F8 17                 3245 	ldhl	sp,	#23
      000F48 32                    3246 	ld	(hl-), a
      000F49 73                    3247 	ld	(hl), e
      000F4A 2A                    3248 	ld	a, (hl+)
      000F4B 66                    3249 	ld	h, (hl)
      000F4C 6F                    3250 	ld	l, a
      000F4D E5                    3251 	push	hl
      000F4E F8 16                 3252 	ldhl	sp,	#22
      000F50 2A                    3253 	ld	a, (hl+)
      000F51 66                    3254 	ld	h, (hl)
      000F52 6F                    3255 	ld	l, a
      000F53 E5                    3256 	push	hl
      000F54 F8 12                 3257 	ldhl	sp,	#18
      000F56 2A                    3258 	ld	a, (hl+)
      000F57 66                    3259 	ld	h, (hl)
      000F58 6F                    3260 	ld	l, a
      000F59 E5                    3261 	push	hl
      000F5A F8 12                 3262 	ldhl	sp,	#18
      000F5C 2A                    3263 	ld	a, (hl+)
      000F5D 66                    3264 	ld	h, (hl)
      000F5E 6F                    3265 	ld	l, a
      000F5F E5                    3266 	push	hl
      000F60 CDr00r00              3267 	call	__mullong
      000F63 E8 08                 3268 	add	sp, #8
      000F65 4D                    3269 	ld	c, l
      000F66 44                    3270 	ld	b, h
      000F67 F8 02                 3271 	ldhl	sp,	#2
      000F69 2A                    3272 	ld	a, (hl+)
      000F6A 66                    3273 	ld	h, (hl)
      000F6B 6F                    3274 	ld	l, a
      000F6C E5                    3275 	push	hl
      000F6D F8 02                 3276 	ldhl	sp,	#2
      000F6F 2A                    3277 	ld	a, (hl+)
      000F70 66                    3278 	ld	h, (hl)
      000F71 6F                    3279 	ld	l, a
      000F72 E5                    3280 	push	hl
      000F73 C5                    3281 	push	bc
      000F74 D5                    3282 	push	de
      000F75 CDr00r00              3283 	call	__divslong
      000F78 E8 08                 3284 	add	sp, #8
      000F7A E5                    3285 	push	hl
      000F7B F8 12                 3286 	ldhl	sp,	#18
      000F7D 73                    3287 	ld	(hl), e
      000F7E F8 13                 3288 	ldhl	sp,	#19
      000F80 72                    3289 	ld	(hl), d
      000F81 E1                    3290 	pop	hl
      000F82 E5                    3291 	push	hl
      000F83 7D                    3292 	ld	a, l
      000F84 F8 14                 3293 	ldhl	sp,	#20
      000F86 77                    3294 	ld	(hl), a
      000F87 E1                    3295 	pop	hl
      000F88 7C                    3296 	ld	a, h
      000F89 F8 13                 3297 	ldhl	sp,	#19
      000F8B 77                    3298 	ld	(hl), a
      000F8C F8 10                 3299 	ldhl	sp,#16
      000F8E 2A                    3300 	ld	a, (hl+)
      000F8F 5F                    3301 	ld	e, a
      000F90 56                    3302 	ld	d, (hl)
      000F91 7B                    3303 	ld	a, e
      000F92 F8 22                 3304 	ldhl	sp,	#34
      000F94 86                    3305 	add	a, (hl)
      000F95 5F                    3306 	ld	e, a
      000F96 7A                    3307 	ld	a, d
      000F97 23                    3308 	inc	hl
      000F98 8E                    3309 	adc	a, (hl)
      000F99 F5                    3310 	push	af
      000F9A F8 17                 3311 	ldhl	sp,	#23
      000F9C 32                    3312 	ld	(hl-), a
      000F9D 7B                    3313 	ld	a, e
      000F9E 32                    3314 	ld	(hl-), a
      000F9F 2B                    3315 	dec	hl
      000FA0 2A                    3316 	ld	a, (hl+)
      000FA1 5F                    3317 	ld	e, a
      000FA2 56                    3318 	ld	d, (hl)
      000FA3 F8 26                 3319 	ldhl	sp,	#38
      000FA5 F1                    3320 	pop	af
      000FA6 7B                    3321 	ld	a, e
      000FA7 8E                    3322 	adc	a, (hl)
      000FA8 5F                    3323 	ld	e, a
      000FA9 7A                    3324 	ld	a, d
      000FAA 23                    3325 	inc	hl
      000FAB 8E                    3326 	adc	a, (hl)
      000FAC F8 17                 3327 	ldhl	sp,	#23
      000FAE 32                    3328 	ld	(hl-), a
      000FAF 7B                    3329 	ld	a, e
      000FB0 32                    3330 	ld	(hl-), a
      000FB1 2B                    3331 	dec	hl
      000FB2 2A                    3332 	ld	a, (hl+)
      000FB3 5F                    3333 	ld	e, a
      000FB4 2A                    3334 	ld	a, (hl+)
      000FB5 57                    3335 	ld	d, a
      000FB6 2A                    3336 	ld	a, (hl+)
      000FB7 66                    3337 	ld	h, (hl)
      000FB8 6F                    3338 	ld	l, a
      000FB9 C3r06r13              3339 	jp	00108$
                                   3340 ;main.c:147: case 5:
      000FBC                       3341 00105$:
                                   3342 ;main.c:148: return (zy*(5*tmp*tmp*(tmp*tmp - 2*zy*zy) + zy*zy*zy*zy))/factor + cy;
      000FBC F8 28                 3343 	ldhl	sp,	#40
      000FBE 2A                    3344 	ld	a, (hl+)
      000FBF 66                    3345 	ld	h, (hl)
      000FC0 6F                    3346 	ld	l, a
      000FC1 E5                    3347 	push	hl
      000FC2 F8 28                 3348 	ldhl	sp,	#40
      000FC4 2A                    3349 	ld	a, (hl+)
      000FC5 66                    3350 	ld	h, (hl)
      000FC6 6F                    3351 	ld	l, a
      000FC7 E5                    3352 	push	hl
      000FC8 21 00 00              3353 	ld	hl, #0x0000
      000FCB E5                    3354 	push	hl
      000FCC 21 05 00              3355 	ld	hl, #0x0005
      000FCF E5                    3356 	push	hl
      000FD0 CDr00r00              3357 	call	__mullong
      000FD3 E8 08                 3358 	add	sp, #8
      000FD5 4D                    3359 	ld	c, l
      000FD6 44                    3360 	ld	b, h
      000FD7 F8 28                 3361 	ldhl	sp,	#40
      000FD9 2A                    3362 	ld	a, (hl+)
      000FDA 66                    3363 	ld	h, (hl)
      000FDB 6F                    3364 	ld	l, a
      000FDC E5                    3365 	push	hl
      000FDD F8 28                 3366 	ldhl	sp,	#40
      000FDF 2A                    3367 	ld	a, (hl+)
      000FE0 66                    3368 	ld	h, (hl)
      000FE1 6F                    3369 	ld	l, a
      000FE2 E5                    3370 	push	hl
      000FE3 C5                    3371 	push	bc
      000FE4 D5                    3372 	push	de
      000FE5 CDr00r00              3373 	call	__mullong
      000FE8 E8 08                 3374 	add	sp, #8
      000FEA E5                    3375 	push	hl
      000FEB F8 0E                 3376 	ldhl	sp,	#14
      000FED 73                    3377 	ld	(hl), e
      000FEE F8 0F                 3378 	ldhl	sp,	#15
      000FF0 72                    3379 	ld	(hl), d
      000FF1 E1                    3380 	pop	hl
      000FF2 E5                    3381 	push	hl
      000FF3 7D                    3382 	ld	a, l
      000FF4 F8 10                 3383 	ldhl	sp,	#16
      000FF6 77                    3384 	ld	(hl), a
      000FF7 E1                    3385 	pop	hl
      000FF8 7C                    3386 	ld	a, h
      000FF9 F8 0F                 3387 	ldhl	sp,	#15
      000FFB 77                    3388 	ld	(hl), a
      000FFC F8 1E                 3389 	ldhl	sp,	#30
      000FFE 2A                    3390 	ld	a, (hl+)
      000FFF 4F                    3391 	ld	c, a
      001000 2A                    3392 	ld	a, (hl+)
      001001 47                    3393 	ld	b, a
      001002 2A                    3394 	ld	a, (hl+)
      001003 5F                    3395 	ld	e, a
      001004 56                    3396 	ld	d, (hl)
      001005 CB 21                 3397 	sla	c
      001007 CB 10                 3398 	rl	b
      001009 CB 13                 3399 	rl	e
      00100B CB 12                 3400 	rl	d
      00100D 2B                    3401 	dec	hl
      00100E 2A                    3402 	ld	a, (hl+)
      00100F 66                    3403 	ld	h, (hl)
      001010 6F                    3404 	ld	l, a
      001011 E5                    3405 	push	hl
      001012 F8 20                 3406 	ldhl	sp,	#32
      001014 2A                    3407 	ld	a, (hl+)
      001015 66                    3408 	ld	h, (hl)
      001016 6F                    3409 	ld	l, a
      001017 E5                    3410 	push	hl
      001018 D5                    3411 	push	de
      001019 C5                    3412 	push	bc
      00101A CDr00r00              3413 	call	__mullong
      00101D E8 08                 3414 	add	sp, #8
      00101F E5                    3415 	push	hl
      001020 F8 12                 3416 	ldhl	sp,	#18
      001022 73                    3417 	ld	(hl), e
      001023 F8 13                 3418 	ldhl	sp,	#19
      001025 72                    3419 	ld	(hl), d
      001026 E1                    3420 	pop	hl
      001027 E5                    3421 	push	hl
      001028 7D                    3422 	ld	a, l
      001029 F8 14                 3423 	ldhl	sp,	#20
      00102B 77                    3424 	ld	(hl), a
      00102C E1                    3425 	pop	hl
      00102D 7C                    3426 	ld	a, h
      00102E F8 13                 3427 	ldhl	sp,	#19
      001030 77                    3428 	ld	(hl), a
      001031 F8 04                 3429 	ldhl	sp,#4
      001033 2A                    3430 	ld	a, (hl+)
      001034 5F                    3431 	ld	e, a
      001035 56                    3432 	ld	d, (hl)
      001036 7B                    3433 	ld	a, e
      001037 F8 10                 3434 	ldhl	sp,	#16
      001039 96                    3435 	sub	a, (hl)
      00103A 5F                    3436 	ld	e, a
      00103B 7A                    3437 	ld	a, d
      00103C 23                    3438 	inc	hl
      00103D 9E                    3439 	sbc	a, (hl)
      00103E F5                    3440 	push	af
      00103F F8 17                 3441 	ldhl	sp,	#23
      001041 32                    3442 	ld	(hl-), a
      001042 73                    3443 	ld	(hl), e
      001043 F8 08                 3444 	ldhl	sp,#8
      001045 2A                    3445 	ld	a, (hl+)
      001046 5F                    3446 	ld	e, a
      001047 56                    3447 	ld	d, (hl)
      001048 F8 14                 3448 	ldhl	sp,	#20
      00104A F1                    3449 	pop	af
      00104B 7B                    3450 	ld	a, e
      00104C 9E                    3451 	sbc	a, (hl)
      00104D 5F                    3452 	ld	e, a
      00104E 7A                    3453 	ld	a, d
      00104F 23                    3454 	inc	hl
      001050 9E                    3455 	sbc	a, (hl)
      001051 F8 17                 3456 	ldhl	sp,	#23
      001053 32                    3457 	ld	(hl-), a
      001054 73                    3458 	ld	(hl), e
      001055 2A                    3459 	ld	a, (hl+)
      001056 66                    3460 	ld	h, (hl)
      001057 6F                    3461 	ld	l, a
      001058 E5                    3462 	push	hl
      001059 F8 16                 3463 	ldhl	sp,	#22
      00105B 2A                    3464 	ld	a, (hl+)
      00105C 66                    3465 	ld	h, (hl)
      00105D 6F                    3466 	ld	l, a
      00105E E5                    3467 	push	hl
      00105F F8 12                 3468 	ldhl	sp,	#18
      001061 2A                    3469 	ld	a, (hl+)
      001062 66                    3470 	ld	h, (hl)
      001063 6F                    3471 	ld	l, a
      001064 E5                    3472 	push	hl
      001065 F8 12                 3473 	ldhl	sp,	#18
      001067 2A                    3474 	ld	a, (hl+)
      001068 66                    3475 	ld	h, (hl)
      001069 6F                    3476 	ld	l, a
      00106A E5                    3477 	push	hl
      00106B CDr00r00              3478 	call	__mullong
      00106E E8 08                 3479 	add	sp, #8
      001070 E5                    3480 	push	hl
      001071 F8 12                 3481 	ldhl	sp,	#18
      001073 73                    3482 	ld	(hl), e
      001074 F8 13                 3483 	ldhl	sp,	#19
      001076 72                    3484 	ld	(hl), d
      001077 E1                    3485 	pop	hl
      001078 E5                    3486 	push	hl
      001079 7D                    3487 	ld	a, l
      00107A F8 14                 3488 	ldhl	sp,	#20
      00107C 77                    3489 	ld	(hl), a
      00107D E1                    3490 	pop	hl
      00107E 7C                    3491 	ld	a, h
      00107F F8 13                 3492 	ldhl	sp,	#19
      001081 77                    3493 	ld	(hl), a
      001082 F8 10                 3494 	ldhl	sp,#16
      001084 2A                    3495 	ld	a, (hl+)
      001085 5F                    3496 	ld	e, a
      001086 56                    3497 	ld	d, (hl)
      001087 7B                    3498 	ld	a, e
      001088 F8 08                 3499 	ldhl	sp,	#8
      00108A 86                    3500 	add	a, (hl)
      00108B 5F                    3501 	ld	e, a
      00108C 7A                    3502 	ld	a, d
      00108D 23                    3503 	inc	hl
      00108E 8E                    3504 	adc	a, (hl)
      00108F F5                    3505 	push	af
      001090 F8 17                 3506 	ldhl	sp,	#23
      001092 32                    3507 	ld	(hl-), a
      001093 7B                    3508 	ld	a, e
      001094 32                    3509 	ld	(hl-), a
      001095 2B                    3510 	dec	hl
      001096 2A                    3511 	ld	a, (hl+)
      001097 5F                    3512 	ld	e, a
      001098 56                    3513 	ld	d, (hl)
      001099 F8 0C                 3514 	ldhl	sp,	#12
      00109B F1                    3515 	pop	af
      00109C 7B                    3516 	ld	a, e
      00109D 8E                    3517 	adc	a, (hl)
      00109E 5F                    3518 	ld	e, a
      00109F 7A                    3519 	ld	a, d
      0010A0 23                    3520 	inc	hl
      0010A1 8E                    3521 	adc	a, (hl)
      0010A2 F8 17                 3522 	ldhl	sp,	#23
      0010A4 32                    3523 	ld	(hl-), a
      0010A5 73                    3524 	ld	(hl), e
      0010A6 2A                    3525 	ld	a, (hl+)
      0010A7 66                    3526 	ld	h, (hl)
      0010A8 6F                    3527 	ld	l, a
      0010A9 E5                    3528 	push	hl
      0010AA F8 16                 3529 	ldhl	sp,	#22
      0010AC 2A                    3530 	ld	a, (hl+)
      0010AD 66                    3531 	ld	h, (hl)
      0010AE 6F                    3532 	ld	l, a
      0010AF E5                    3533 	push	hl
      0010B0 F8 24                 3534 	ldhl	sp,	#36
      0010B2 2A                    3535 	ld	a, (hl+)
      0010B3 66                    3536 	ld	h, (hl)
      0010B4 6F                    3537 	ld	l, a
      0010B5 E5                    3538 	push	hl
      0010B6 F8 24                 3539 	ldhl	sp,	#36
      0010B8 2A                    3540 	ld	a, (hl+)
      0010B9 66                    3541 	ld	h, (hl)
      0010BA 6F                    3542 	ld	l, a
      0010BB E5                    3543 	push	hl
      0010BC CDr00r00              3544 	call	__mullong
      0010BF E8 08                 3545 	add	sp, #8
      0010C1 4D                    3546 	ld	c, l
      0010C2 44                    3547 	ld	b, h
      0010C3 F8 02                 3548 	ldhl	sp,	#2
      0010C5 2A                    3549 	ld	a, (hl+)
      0010C6 66                    3550 	ld	h, (hl)
      0010C7 6F                    3551 	ld	l, a
      0010C8 E5                    3552 	push	hl
      0010C9 F8 02                 3553 	ldhl	sp,	#2
      0010CB 2A                    3554 	ld	a, (hl+)
      0010CC 66                    3555 	ld	h, (hl)
      0010CD 6F                    3556 	ld	l, a
      0010CE E5                    3557 	push	hl
      0010CF C5                    3558 	push	bc
      0010D0 D5                    3559 	push	de
      0010D1 CDr00r00              3560 	call	__divslong
      0010D4 E8 08                 3561 	add	sp, #8
      0010D6 E5                    3562 	push	hl
      0010D7 F8 12                 3563 	ldhl	sp,	#18
      0010D9 73                    3564 	ld	(hl), e
      0010DA F8 13                 3565 	ldhl	sp,	#19
      0010DC 72                    3566 	ld	(hl), d
      0010DD E1                    3567 	pop	hl
      0010DE E5                    3568 	push	hl
      0010DF 7D                    3569 	ld	a, l
      0010E0 F8 14                 3570 	ldhl	sp,	#20
      0010E2 77                    3571 	ld	(hl), a
      0010E3 E1                    3572 	pop	hl
      0010E4 7C                    3573 	ld	a, h
      0010E5 F8 13                 3574 	ldhl	sp,	#19
      0010E7 77                    3575 	ld	(hl), a
      0010E8 F8 10                 3576 	ldhl	sp,#16
      0010EA 2A                    3577 	ld	a, (hl+)
      0010EB 5F                    3578 	ld	e, a
      0010EC 56                    3579 	ld	d, (hl)
      0010ED 7B                    3580 	ld	a, e
      0010EE F8 22                 3581 	ldhl	sp,	#34
      0010F0 86                    3582 	add	a, (hl)
      0010F1 5F                    3583 	ld	e, a
      0010F2 7A                    3584 	ld	a, d
      0010F3 23                    3585 	inc	hl
      0010F4 8E                    3586 	adc	a, (hl)
      0010F5 F5                    3587 	push	af
      0010F6 F8 17                 3588 	ldhl	sp,	#23
      0010F8 32                    3589 	ld	(hl-), a
      0010F9 7B                    3590 	ld	a, e
      0010FA 32                    3591 	ld	(hl-), a
      0010FB 2B                    3592 	dec	hl
      0010FC 2A                    3593 	ld	a, (hl+)
      0010FD 5F                    3594 	ld	e, a
      0010FE 56                    3595 	ld	d, (hl)
      0010FF F8 26                 3596 	ldhl	sp,	#38
      001101 F1                    3597 	pop	af
      001102 7B                    3598 	ld	a, e
      001103 8E                    3599 	adc	a, (hl)
      001104 5F                    3600 	ld	e, a
      001105 7A                    3601 	ld	a, d
      001106 23                    3602 	inc	hl
      001107 8E                    3603 	adc	a, (hl)
      001108 F8 17                 3604 	ldhl	sp,	#23
      00110A 32                    3605 	ld	(hl-), a
      00110B 7B                    3606 	ld	a, e
      00110C 32                    3607 	ld	(hl-), a
      00110D 2B                    3608 	dec	hl
      00110E 2A                    3609 	ld	a, (hl+)
      00110F 5F                    3610 	ld	e, a
      001110 2A                    3611 	ld	a, (hl+)
      001111 57                    3612 	ld	d, a
      001112 2A                    3613 	ld	a, (hl+)
      001113 66                    3614 	ld	h, (hl)
      001114 6F                    3615 	ld	l, a
      001115 C3r06r13              3616 	jp	00108$
                                   3617 ;main.c:149: case 6:
      001118                       3618 00106$:
                                   3619 ;main.c:150: return (6*(tmp*tmp*tmp*tmp*tmp)*zy-20*(tmp*tmp*tmp)*(zy*zy*zy)+6*tmp*(zy*zy*zy*zy*zy))/factor + cy;
      001118 F8 28                 3620 	ldhl	sp,	#40
      00111A 2A                    3621 	ld	a, (hl+)
      00111B 66                    3622 	ld	h, (hl)
      00111C 6F                    3623 	ld	l, a
      00111D E5                    3624 	push	hl
      00111E F8 28                 3625 	ldhl	sp,	#40
      001120 2A                    3626 	ld	a, (hl+)
      001121 66                    3627 	ld	h, (hl)
      001122 6F                    3628 	ld	l, a
      001123 E5                    3629 	push	hl
      001124 F8 0A                 3630 	ldhl	sp,	#10
      001126 2A                    3631 	ld	a, (hl+)
      001127 66                    3632 	ld	h, (hl)
      001128 6F                    3633 	ld	l, a
      001129 E5                    3634 	push	hl
      00112A F8 0A                 3635 	ldhl	sp,	#10
      00112C 2A                    3636 	ld	a, (hl+)
      00112D 66                    3637 	ld	h, (hl)
      00112E 6F                    3638 	ld	l, a
      00112F E5                    3639 	push	hl
      001130 CDr00r00              3640 	call	__mullong
      001133 E8 08                 3641 	add	sp, #8
      001135 E5                    3642 	push	hl
      001136 F8 12                 3643 	ldhl	sp,	#18
      001138 73                    3644 	ld	(hl), e
      001139 F8 13                 3645 	ldhl	sp,	#19
      00113B 72                    3646 	ld	(hl), d
      00113C E1                    3647 	pop	hl
      00113D E5                    3648 	push	hl
      00113E 7D                    3649 	ld	a, l
      00113F F8 14                 3650 	ldhl	sp,	#20
      001141 77                    3651 	ld	(hl), a
      001142 E1                    3652 	pop	hl
      001143 7C                    3653 	ld	a, h
      001144 F8 13                 3654 	ldhl	sp,	#19
      001146 77                    3655 	ld	(hl), a
      001147 F8 28                 3656 	ldhl	sp,	#40
      001149 2A                    3657 	ld	a, (hl+)
      00114A 66                    3658 	ld	h, (hl)
      00114B 6F                    3659 	ld	l, a
      00114C E5                    3660 	push	hl
      00114D F8 28                 3661 	ldhl	sp,	#40
      00114F 2A                    3662 	ld	a, (hl+)
      001150 66                    3663 	ld	h, (hl)
      001151 6F                    3664 	ld	l, a
      001152 E5                    3665 	push	hl
      001153 F8 16                 3666 	ldhl	sp,	#22
      001155 2A                    3667 	ld	a, (hl+)
      001156 66                    3668 	ld	h, (hl)
      001157 6F                    3669 	ld	l, a
      001158 E5                    3670 	push	hl
      001159 F8 16                 3671 	ldhl	sp,	#22
      00115B 2A                    3672 	ld	a, (hl+)
      00115C 66                    3673 	ld	h, (hl)
      00115D 6F                    3674 	ld	l, a
      00115E E5                    3675 	push	hl
      00115F CDr00r00              3676 	call	__mullong
      001162 E8 08                 3677 	add	sp, #8
      001164 4D                    3678 	ld	c, l
      001165 44                    3679 	ld	b, h
      001166 F8 28                 3680 	ldhl	sp,	#40
      001168 2A                    3681 	ld	a, (hl+)
      001169 66                    3682 	ld	h, (hl)
      00116A 6F                    3683 	ld	l, a
      00116B E5                    3684 	push	hl
      00116C F8 28                 3685 	ldhl	sp,	#40
      00116E 2A                    3686 	ld	a, (hl+)
      00116F 66                    3687 	ld	h, (hl)
      001170 6F                    3688 	ld	l, a
      001171 E5                    3689 	push	hl
      001172 C5                    3690 	push	bc
      001173 D5                    3691 	push	de
      001174 CDr00r00              3692 	call	__mullong
      001177 E8 08                 3693 	add	sp, #8
      001179 E5                    3694 	push	hl
      00117A D5                    3695 	push	de
      00117B 21 00 00              3696 	ld	hl, #0x0000
      00117E E5                    3697 	push	hl
      00117F 21 06 00              3698 	ld	hl, #0x0006
      001182 E5                    3699 	push	hl
      001183 CDr00r00              3700 	call	__mullong
      001186 E8 08                 3701 	add	sp, #8
      001188 4D                    3702 	ld	c, l
      001189 44                    3703 	ld	b, h
      00118A F8 20                 3704 	ldhl	sp,	#32
      00118C 2A                    3705 	ld	a, (hl+)
      00118D 66                    3706 	ld	h, (hl)
      00118E 6F                    3707 	ld	l, a
      00118F E5                    3708 	push	hl
      001190 F8 20                 3709 	ldhl	sp,	#32
      001192 2A                    3710 	ld	a, (hl+)
      001193 66                    3711 	ld	h, (hl)
      001194 6F                    3712 	ld	l, a
      001195 E5                    3713 	push	hl
      001196 C5                    3714 	push	bc
      001197 D5                    3715 	push	de
      001198 CDr00r00              3716 	call	__mullong
      00119B E8 08                 3717 	add	sp, #8
      00119D E5                    3718 	push	hl
      00119E F8 0E                 3719 	ldhl	sp,	#14
      0011A0 73                    3720 	ld	(hl), e
      0011A1 F8 0F                 3721 	ldhl	sp,	#15
      0011A3 72                    3722 	ld	(hl), d
      0011A4 E1                    3723 	pop	hl
      0011A5 E5                    3724 	push	hl
      0011A6 7D                    3725 	ld	a, l
      0011A7 F8 10                 3726 	ldhl	sp,	#16
      0011A9 77                    3727 	ld	(hl), a
      0011AA E1                    3728 	pop	hl
      0011AB 7C                    3729 	ld	a, h
      0011AC F8 0F                 3730 	ldhl	sp,	#15
      0011AE 77                    3731 	ld	(hl), a
      0011AF F8 12                 3732 	ldhl	sp,	#18
      0011B1 2A                    3733 	ld	a, (hl+)
      0011B2 66                    3734 	ld	h, (hl)
      0011B3 6F                    3735 	ld	l, a
      0011B4 E5                    3736 	push	hl
      0011B5 F8 12                 3737 	ldhl	sp,	#18
      0011B7 2A                    3738 	ld	a, (hl+)
      0011B8 66                    3739 	ld	h, (hl)
      0011B9 6F                    3740 	ld	l, a
      0011BA E5                    3741 	push	hl
      0011BB 21 00 00              3742 	ld	hl, #0x0000
      0011BE E5                    3743 	push	hl
      0011BF 21 14 00              3744 	ld	hl, #0x0014
      0011C2 E5                    3745 	push	hl
      0011C3 CDr00r00              3746 	call	__mullong
      0011C6 E8 08                 3747 	add	sp, #8
      0011C8 4D                    3748 	ld	c, l
      0011C9 44                    3749 	ld	b, h
      0011CA F8 16                 3750 	ldhl	sp,	#22
      0011CC 2A                    3751 	ld	a, (hl+)
      0011CD 66                    3752 	ld	h, (hl)
      0011CE 6F                    3753 	ld	l, a
      0011CF E5                    3754 	push	hl
      0011D0 F8 16                 3755 	ldhl	sp,	#22
      0011D2 2A                    3756 	ld	a, (hl+)
      0011D3 66                    3757 	ld	h, (hl)
      0011D4 6F                    3758 	ld	l, a
      0011D5 E5                    3759 	push	hl
      0011D6 C5                    3760 	push	bc
      0011D7 D5                    3761 	push	de
      0011D8 CDr00r00              3762 	call	__mullong
      0011DB E8 08                 3763 	add	sp, #8
      0011DD E5                    3764 	push	hl
      0011DE F8 12                 3765 	ldhl	sp,	#18
      0011E0 73                    3766 	ld	(hl), e
      0011E1 F8 13                 3767 	ldhl	sp,	#19
      0011E3 72                    3768 	ld	(hl), d
      0011E4 E1                    3769 	pop	hl
      0011E5 E5                    3770 	push	hl
      0011E6 7D                    3771 	ld	a, l
      0011E7 F8 14                 3772 	ldhl	sp,	#20
      0011E9 77                    3773 	ld	(hl), a
      0011EA E1                    3774 	pop	hl
      0011EB 7C                    3775 	ld	a, h
      0011EC F8 13                 3776 	ldhl	sp,	#19
      0011EE 77                    3777 	ld	(hl), a
      0011EF F8 0C                 3778 	ldhl	sp,#12
      0011F1 2A                    3779 	ld	a, (hl+)
      0011F2 5F                    3780 	ld	e, a
      0011F3 56                    3781 	ld	d, (hl)
      0011F4 7B                    3782 	ld	a, e
      0011F5 F8 10                 3783 	ldhl	sp,	#16
      0011F7 96                    3784 	sub	a, (hl)
      0011F8 5F                    3785 	ld	e, a
      0011F9 7A                    3786 	ld	a, d
      0011FA 23                    3787 	inc	hl
      0011FB 9E                    3788 	sbc	a, (hl)
      0011FC F5                    3789 	push	af
      0011FD F8 17                 3790 	ldhl	sp,	#23
      0011FF 32                    3791 	ld	(hl-), a
      001200 73                    3792 	ld	(hl), e
      001201 F8 10                 3793 	ldhl	sp,#16
      001203 2A                    3794 	ld	a, (hl+)
      001204 5F                    3795 	ld	e, a
      001205 56                    3796 	ld	d, (hl)
      001206 F8 14                 3797 	ldhl	sp,	#20
      001208 F1                    3798 	pop	af
      001209 7B                    3799 	ld	a, e
      00120A 9E                    3800 	sbc	a, (hl)
      00120B 5F                    3801 	ld	e, a
      00120C 7A                    3802 	ld	a, d
      00120D 23                    3803 	inc	hl
      00120E 9E                    3804 	sbc	a, (hl)
      00120F F8 17                 3805 	ldhl	sp,	#23
      001211 32                    3806 	ld	(hl-), a
      001212 73                    3807 	ld	(hl), e
      001213 F8 28                 3808 	ldhl	sp,	#40
      001215 2A                    3809 	ld	a, (hl+)
      001216 66                    3810 	ld	h, (hl)
      001217 6F                    3811 	ld	l, a
      001218 E5                    3812 	push	hl
      001219 F8 28                 3813 	ldhl	sp,	#40
      00121B 2A                    3814 	ld	a, (hl+)
      00121C 66                    3815 	ld	h, (hl)
      00121D 6F                    3816 	ld	l, a
      00121E E5                    3817 	push	hl
      00121F 21 00 00              3818 	ld	hl, #0x0000
      001222 E5                    3819 	push	hl
      001223 21 06 00              3820 	ld	hl, #0x0006
      001226 E5                    3821 	push	hl
      001227 CDr00r00              3822 	call	__mullong
      00122A E8 08                 3823 	add	sp, #8
      00122C E5                    3824 	push	hl
      00122D F8 12                 3825 	ldhl	sp,	#18
      00122F 73                    3826 	ld	(hl), e
      001230 F8 13                 3827 	ldhl	sp,	#19
      001232 72                    3828 	ld	(hl), d
      001233 E1                    3829 	pop	hl
      001234 E5                    3830 	push	hl
      001235 7D                    3831 	ld	a, l
      001236 F8 14                 3832 	ldhl	sp,	#20
      001238 77                    3833 	ld	(hl), a
      001239 E1                    3834 	pop	hl
      00123A 7C                    3835 	ld	a, h
      00123B F8 13                 3836 	ldhl	sp,	#19
      00123D 77                    3837 	ld	(hl), a
      00123E F8 20                 3838 	ldhl	sp,	#32
      001240 2A                    3839 	ld	a, (hl+)
      001241 66                    3840 	ld	h, (hl)
      001242 6F                    3841 	ld	l, a
      001243 E5                    3842 	push	hl
      001244 F8 20                 3843 	ldhl	sp,	#32
      001246 2A                    3844 	ld	a, (hl+)
      001247 66                    3845 	ld	h, (hl)
      001248 6F                    3846 	ld	l, a
      001249 E5                    3847 	push	hl
      00124A F8 0E                 3848 	ldhl	sp,	#14
      00124C 2A                    3849 	ld	a, (hl+)
      00124D 66                    3850 	ld	h, (hl)
      00124E 6F                    3851 	ld	l, a
      00124F E5                    3852 	push	hl
      001250 F8 0E                 3853 	ldhl	sp,	#14
      001252 2A                    3854 	ld	a, (hl+)
      001253 66                    3855 	ld	h, (hl)
      001254 6F                    3856 	ld	l, a
      001255 E5                    3857 	push	hl
      001256 CDr00r00              3858 	call	__mullong
      001259 E8 08                 3859 	add	sp, #8
      00125B E5                    3860 	push	hl
      00125C D5                    3861 	push	de
      00125D F8 16                 3862 	ldhl	sp,	#22
      00125F 2A                    3863 	ld	a, (hl+)
      001260 66                    3864 	ld	h, (hl)
      001261 6F                    3865 	ld	l, a
      001262 E5                    3866 	push	hl
      001263 F8 16                 3867 	ldhl	sp,	#22
      001265 2A                    3868 	ld	a, (hl+)
      001266 66                    3869 	ld	h, (hl)
      001267 6F                    3870 	ld	l, a
      001268 E5                    3871 	push	hl
      001269 CDr00r00              3872 	call	__mullong
      00126C E8 08                 3873 	add	sp, #8
      00126E E5                    3874 	push	hl
      00126F F8 0E                 3875 	ldhl	sp,	#14
      001271 73                    3876 	ld	(hl), e
      001272 F8 0F                 3877 	ldhl	sp,	#15
      001274 72                    3878 	ld	(hl), d
      001275 E1                    3879 	pop	hl
      001276 E5                    3880 	push	hl
      001277 7D                    3881 	ld	a, l
      001278 F8 10                 3882 	ldhl	sp,	#16
      00127A 77                    3883 	ld	(hl), a
      00127B E1                    3884 	pop	hl
      00127C 7C                    3885 	ld	a, h
      00127D F8 0F                 3886 	ldhl	sp,	#15
      00127F 77                    3887 	ld	(hl), a
      001280 F8 14                 3888 	ldhl	sp,#20
      001282 2A                    3889 	ld	a, (hl+)
      001283 5F                    3890 	ld	e, a
      001284 56                    3891 	ld	d, (hl)
      001285 7B                    3892 	ld	a, e
      001286 F8 0C                 3893 	ldhl	sp,	#12
      001288 86                    3894 	add	a, (hl)
      001289 5F                    3895 	ld	e, a
      00128A 7A                    3896 	ld	a, d
      00128B 23                    3897 	inc	hl
      00128C 8E                    3898 	adc	a, (hl)
      00128D F5                    3899 	push	af
      00128E F8 13                 3900 	ldhl	sp,	#19
      001290 32                    3901 	ld	(hl-), a
      001291 73                    3902 	ld	(hl), e
      001292 F8 18                 3903 	ldhl	sp,#24
      001294 2A                    3904 	ld	a, (hl+)
      001295 5F                    3905 	ld	e, a
      001296 56                    3906 	ld	d, (hl)
      001297 F8 10                 3907 	ldhl	sp,	#16
      001299 F1                    3908 	pop	af
      00129A 7B                    3909 	ld	a, e
      00129B 8E                    3910 	adc	a, (hl)
      00129C 5F                    3911 	ld	e, a
      00129D 7A                    3912 	ld	a, d
      00129E 23                    3913 	inc	hl
      00129F 8E                    3914 	adc	a, (hl)
      0012A0 F8 13                 3915 	ldhl	sp,	#19
      0012A2 32                    3916 	ld	(hl-), a
      0012A3 73                    3917 	ld	(hl), e
      0012A4 C1                    3918 	pop	bc
      0012A5 E1                    3919 	pop	hl
      0012A6 E5                    3920 	push	hl
      0012A7 C5                    3921 	push	bc
      0012A8 4D                    3922 	ld	c, l
      0012A9 44                    3923 	ld	b, h
      0012AA E1                    3924 	pop	hl
      0012AB E5                    3925 	push	hl
      0012AC C5                    3926 	push	bc
      0012AD E5                    3927 	push	hl
      0012AE F8 16                 3928 	ldhl	sp,	#22
      0012B0 2A                    3929 	ld	a, (hl+)
      0012B1 66                    3930 	ld	h, (hl)
      0012B2 6F                    3931 	ld	l, a
      0012B3 E5                    3932 	push	hl
      0012B4 F8 16                 3933 	ldhl	sp,	#22
      0012B6 2A                    3934 	ld	a, (hl+)
      0012B7 66                    3935 	ld	h, (hl)
      0012B8 6F                    3936 	ld	l, a
      0012B9 E5                    3937 	push	hl
      0012BA CDr00r00              3938 	call	__divslong
      0012BD E8 08                 3939 	add	sp, #8
      0012BF E5                    3940 	push	hl
      0012C0 F8 12                 3941 	ldhl	sp,	#18
      0012C2 73                    3942 	ld	(hl), e
      0012C3 F8 13                 3943 	ldhl	sp,	#19
      0012C5 72                    3944 	ld	(hl), d
      0012C6 E1                    3945 	pop	hl
      0012C7 E5                    3946 	push	hl
      0012C8 7D                    3947 	ld	a, l
      0012C9 F8 14                 3948 	ldhl	sp,	#20
      0012CB 77                    3949 	ld	(hl), a
      0012CC E1                    3950 	pop	hl
      0012CD 7C                    3951 	ld	a, h
      0012CE F8 13                 3952 	ldhl	sp,	#19
      0012D0 77                    3953 	ld	(hl), a
      0012D1 F8 10                 3954 	ldhl	sp,#16
      0012D3 2A                    3955 	ld	a, (hl+)
      0012D4 5F                    3956 	ld	e, a
      0012D5 56                    3957 	ld	d, (hl)
      0012D6 7B                    3958 	ld	a, e
      0012D7 F8 22                 3959 	ldhl	sp,	#34
      0012D9 86                    3960 	add	a, (hl)
      0012DA 5F                    3961 	ld	e, a
      0012DB 7A                    3962 	ld	a, d
      0012DC 23                    3963 	inc	hl
      0012DD 8E                    3964 	adc	a, (hl)
      0012DE F5                    3965 	push	af
      0012DF F8 17                 3966 	ldhl	sp,	#23
      0012E1 32                    3967 	ld	(hl-), a
      0012E2 7B                    3968 	ld	a, e
      0012E3 32                    3969 	ld	(hl-), a
      0012E4 2B                    3970 	dec	hl
      0012E5 2A                    3971 	ld	a, (hl+)
      0012E6 5F                    3972 	ld	e, a
      0012E7 56                    3973 	ld	d, (hl)
      0012E8 F8 26                 3974 	ldhl	sp,	#38
      0012EA F1                    3975 	pop	af
      0012EB 7B                    3976 	ld	a, e
      0012EC 8E                    3977 	adc	a, (hl)
      0012ED 5F                    3978 	ld	e, a
      0012EE 7A                    3979 	ld	a, d
      0012EF 23                    3980 	inc	hl
      0012F0 8E                    3981 	adc	a, (hl)
      0012F1 F8 17                 3982 	ldhl	sp,	#23
      0012F3 32                    3983 	ld	(hl-), a
      0012F4 7B                    3984 	ld	a, e
      0012F5 32                    3985 	ld	(hl-), a
      0012F6 2B                    3986 	dec	hl
      0012F7 2A                    3987 	ld	a, (hl+)
      0012F8 5F                    3988 	ld	e, a
      0012F9 2A                    3989 	ld	a, (hl+)
      0012FA 57                    3990 	ld	d, a
      0012FB 2A                    3991 	ld	a, (hl+)
      0012FC 66                    3992 	ld	h, (hl)
      0012FD 6F                    3993 	ld	l, a
      0012FE 18 06                 3994 	jr	00108$
                                   3995 ;main.c:151: }
      001300                       3996 00107$:
                                   3997 ;main.c:152: return 0;
      001300 11 00 00              3998 	ld	de, #0x0000
      001303 21 00 00              3999 	ld	hl, #0x0000
      001306                       4000 00108$:
                                   4001 ;main.c:153: }
      001306 E8 18                 4002 	add	sp, #24
      001308 C9                    4003 	ret
                                   4004 ;main.c:155: void drawSetInMode() {
                                   4005 ;	---------------------------------
                                   4006 ; Function drawSetInMode
                                   4007 ; ---------------------------------
      001309                       4008 _drawSetInMode::
      001309 E8 E0                 4009 	add	sp, #-32
                                   4010 ;main.c:156: for (y = 0; y < SCREEN_HEIGHT; y++) {
      00130B 21r0Cr00              4011 	ld	hl, #_y
      00130E 3E 00                 4012 	ld	a, #0x00
      001310 22                    4013 	ld	(hl+), a
      001311 36 00                 4014 	ld	(hl), #0x00
      001313                       4015 00112$:
                                   4016 ;main.c:157: for (x = 0; x < SCREEN_WIDTH; x++) {
      001313 21r0Ar00              4017 	ld	hl, #_x
      001316 3E 00                 4018 	ld	a, #0x00
      001318 22                    4019 	ld	(hl+), a
      001319 36 00                 4020 	ld	(hl), #0x00
      00131B                       4021 00110$:
                                   4022 ;main.c:160: cx = mapRange(0, SCREEN_WIDTH - 1, -2*factor, 2*factor, x);
      00131B FAr0Ar00              4023 	ld	a, (#_x)
      00131E F8 18                 4024 	ldhl	sp,	#24
      001320 77                    4025 	ld	(hl), a
      001321 FAr0Br00              4026 	ld	a, (#_x + 1)
      001324 F8 19                 4027 	ldhl	sp,	#25
      001326 77                    4028 	ld	(hl), a
      001327 17                    4029 	rla
      001328 9F                    4030 	sbc	a, a
      001329 23                    4031 	inc	hl
      00132A 22                    4032 	ld	(hl+), a
      00132B 77                    4033 	ld	(hl), a
      00132C 21r10r00              4034 	ld	hl, #_factor
      00132F 2A                    4035 	ld	a, (hl+)
      001330 4F                    4036 	ld	c, a
      001331 7E                    4037 	ld	a, (hl)
      001332 CB 21                 4038 	sla	c
      001334 8F                    4039 	adc	a, a
      001335 F8 1C                 4040 	ldhl	sp,	#28
      001337 71                    4041 	ld	(hl), c
      001338 23                    4042 	inc	hl
      001339 77                    4043 	ld	(hl), a
      00133A 17                    4044 	rla
      00133B 9F                    4045 	sbc	a, a
      00133C 23                    4046 	inc	hl
      00133D 22                    4047 	ld	(hl+), a
      00133E 77                    4048 	ld	(hl), a
      00133F 21r11r00              4049 	ld	hl, #_factor + 1
      001342 2B                    4050 	dec	hl
      001343 2A                    4051 	ld	a, (hl+)
      001344 4F                    4052 	ld	c, a
      001345 46                    4053 	ld	b, (hl)
      001346 69                    4054 	ld	l, c
      001347 60                    4055 	ld	h, b
      001348 29                    4056 	add	hl, hl
      001349 09                    4057 	add	hl, bc
      00134A 29                    4058 	add	hl, hl
      00134B 09                    4059 	add	hl, bc
      00134C 29                    4060 	add	hl, hl
      00134D 09                    4061 	add	hl, bc
      00134E 29                    4062 	add	hl, hl
      00134F 09                    4063 	add	hl, bc
      001350 29                    4064 	add	hl, hl
      001351 09                    4065 	add	hl, bc
      001352 29                    4066 	add	hl, hl
      001353 09                    4067 	add	hl, bc
      001354 29                    4068 	add	hl, hl
      001355 09                    4069 	add	hl, bc
      001356 29                    4070 	add	hl, hl
      001357 09                    4071 	add	hl, bc
      001358 29                    4072 	add	hl, hl
      001359 09                    4073 	add	hl, bc
      00135A 29                    4074 	add	hl, hl
      00135B 09                    4075 	add	hl, bc
      00135C 29                    4076 	add	hl, hl
      00135D 09                    4077 	add	hl, bc
      00135E 29                    4078 	add	hl, hl
      00135F 09                    4079 	add	hl, bc
      001360 29                    4080 	add	hl, hl
      001361 09                    4081 	add	hl, bc
      001362 29                    4082 	add	hl, hl
      001363 09                    4083 	add	hl, bc
      001364 29                    4084 	add	hl, hl
      001365 4D                    4085 	ld	c, l
      001366 44                    4086 	ld	b, h
      001367 78                    4087 	ld	a, b
      001368 17                    4088 	rla
      001369 9F                    4089 	sbc	a, a
      00136A 5F                    4090 	ld	e, a
      00136B 57                    4091 	ld	d, a
      00136C F8 1A                 4092 	ldhl	sp,	#26
      00136E 2A                    4093 	ld	a, (hl+)
      00136F 66                    4094 	ld	h, (hl)
      001370 6F                    4095 	ld	l, a
      001371 E5                    4096 	push	hl
      001372 F8 1A                 4097 	ldhl	sp,	#26
      001374 2A                    4098 	ld	a, (hl+)
      001375 66                    4099 	ld	h, (hl)
      001376 6F                    4100 	ld	l, a
      001377 E5                    4101 	push	hl
      001378 F8 22                 4102 	ldhl	sp,	#34
      00137A 2A                    4103 	ld	a, (hl+)
      00137B 66                    4104 	ld	h, (hl)
      00137C 6F                    4105 	ld	l, a
      00137D E5                    4106 	push	hl
      00137E F8 22                 4107 	ldhl	sp,	#34
      001380 2A                    4108 	ld	a, (hl+)
      001381 66                    4109 	ld	h, (hl)
      001382 6F                    4110 	ld	l, a
      001383 E5                    4111 	push	hl
      001384 D5                    4112 	push	de
      001385 C5                    4113 	push	bc
      001386 21 00 00              4114 	ld	hl, #0x0000
      001389 E5                    4115 	push	hl
      00138A 21 9F 00              4116 	ld	hl, #0x009f
      00138D E5                    4117 	push	hl
      00138E 21 00 00              4118 	ld	hl, #0x0000
      001391 E5                    4119 	push	hl
      001392 21 00 00              4120 	ld	hl, #0x0000
      001395 E5                    4121 	push	hl
      001396 CDr33r03              4122 	call	_mapRange
      001399 E8 14                 4123 	add	sp, #20
      00139B 4D                    4124 	ld	c, l
      00139C 44                    4125 	ld	b, h
      00139D 33                    4126 	inc	sp
      00139E 33                    4127 	inc	sp
      00139F D5                    4128 	push	de
      0013A0 F8 02                 4129 	ldhl	sp,	#2
      0013A2 79                    4130 	ld	a, c
      0013A3 22                    4131 	ld	(hl+), a
      0013A4 70                    4132 	ld	(hl), b
                                   4133 ;main.c:161: cy = mapRange(0, SCREEN_HEIGHT - 1, -2*factor, 2*factor, y);
      0013A5 FAr0Cr00              4134 	ld	a, (#_y)
      0013A8 F8 18                 4135 	ldhl	sp,	#24
      0013AA 77                    4136 	ld	(hl), a
      0013AB FAr0Dr00              4137 	ld	a, (#_y + 1)
      0013AE F8 19                 4138 	ldhl	sp,	#25
      0013B0 77                    4139 	ld	(hl), a
      0013B1 17                    4140 	rla
      0013B2 9F                    4141 	sbc	a, a
      0013B3 23                    4142 	inc	hl
      0013B4 22                    4143 	ld	(hl+), a
      0013B5 77                    4144 	ld	(hl), a
      0013B6 21r10r00              4145 	ld	hl, #_factor
      0013B9 2A                    4146 	ld	a, (hl+)
      0013BA 4F                    4147 	ld	c, a
      0013BB 7E                    4148 	ld	a, (hl)
      0013BC CB 21                 4149 	sla	c
      0013BE 8F                    4150 	adc	a, a
      0013BF F8 1C                 4151 	ldhl	sp,	#28
      0013C1 71                    4152 	ld	(hl), c
      0013C2 23                    4153 	inc	hl
      0013C3 77                    4154 	ld	(hl), a
      0013C4 17                    4155 	rla
      0013C5 9F                    4156 	sbc	a, a
      0013C6 23                    4157 	inc	hl
      0013C7 22                    4158 	ld	(hl+), a
      0013C8 77                    4159 	ld	(hl), a
      0013C9 21r11r00              4160 	ld	hl, #_factor + 1
      0013CC 2B                    4161 	dec	hl
      0013CD 2A                    4162 	ld	a, (hl+)
      0013CE 4F                    4163 	ld	c, a
      0013CF 46                    4164 	ld	b, (hl)
      0013D0 69                    4165 	ld	l, c
      0013D1 60                    4166 	ld	h, b
      0013D2 29                    4167 	add	hl, hl
      0013D3 09                    4168 	add	hl, bc
      0013D4 29                    4169 	add	hl, hl
      0013D5 09                    4170 	add	hl, bc
      0013D6 29                    4171 	add	hl, hl
      0013D7 09                    4172 	add	hl, bc
      0013D8 29                    4173 	add	hl, hl
      0013D9 09                    4174 	add	hl, bc
      0013DA 29                    4175 	add	hl, hl
      0013DB 09                    4176 	add	hl, bc
      0013DC 29                    4177 	add	hl, hl
      0013DD 09                    4178 	add	hl, bc
      0013DE 29                    4179 	add	hl, hl
      0013DF 09                    4180 	add	hl, bc
      0013E0 29                    4181 	add	hl, hl
      0013E1 09                    4182 	add	hl, bc
      0013E2 29                    4183 	add	hl, hl
      0013E3 09                    4184 	add	hl, bc
      0013E4 29                    4185 	add	hl, hl
      0013E5 09                    4186 	add	hl, bc
      0013E6 29                    4187 	add	hl, hl
      0013E7 09                    4188 	add	hl, bc
      0013E8 29                    4189 	add	hl, hl
      0013E9 09                    4190 	add	hl, bc
      0013EA 29                    4191 	add	hl, hl
      0013EB 09                    4192 	add	hl, bc
      0013EC 29                    4193 	add	hl, hl
      0013ED 09                    4194 	add	hl, bc
      0013EE 29                    4195 	add	hl, hl
      0013EF 4D                    4196 	ld	c, l
      0013F0 44                    4197 	ld	b, h
      0013F1 78                    4198 	ld	a, b
      0013F2 17                    4199 	rla
      0013F3 9F                    4200 	sbc	a, a
      0013F4 5F                    4201 	ld	e, a
      0013F5 57                    4202 	ld	d, a
      0013F6 F8 1A                 4203 	ldhl	sp,	#26
      0013F8 2A                    4204 	ld	a, (hl+)
      0013F9 66                    4205 	ld	h, (hl)
      0013FA 6F                    4206 	ld	l, a
      0013FB E5                    4207 	push	hl
      0013FC F8 1A                 4208 	ldhl	sp,	#26
      0013FE 2A                    4209 	ld	a, (hl+)
      0013FF 66                    4210 	ld	h, (hl)
      001400 6F                    4211 	ld	l, a
      001401 E5                    4212 	push	hl
      001402 F8 22                 4213 	ldhl	sp,	#34
      001404 2A                    4214 	ld	a, (hl+)
      001405 66                    4215 	ld	h, (hl)
      001406 6F                    4216 	ld	l, a
      001407 E5                    4217 	push	hl
      001408 F8 22                 4218 	ldhl	sp,	#34
      00140A 2A                    4219 	ld	a, (hl+)
      00140B 66                    4220 	ld	h, (hl)
      00140C 6F                    4221 	ld	l, a
      00140D E5                    4222 	push	hl
      00140E D5                    4223 	push	de
      00140F C5                    4224 	push	bc
      001410 21 00 00              4225 	ld	hl, #0x0000
      001413 E5                    4226 	push	hl
      001414 21 8F 00              4227 	ld	hl, #0x008f
      001417 E5                    4228 	push	hl
      001418 21 00 00              4229 	ld	hl, #0x0000
      00141B E5                    4230 	push	hl
      00141C 21 00 00              4231 	ld	hl, #0x0000
      00141F E5                    4232 	push	hl
      001420 CDr33r03              4233 	call	_mapRange
      001423 E8 14                 4234 	add	sp, #20
      001425 4D                    4235 	ld	c, l
      001426 44                    4236 	ld	b, h
      001427 F8 04                 4237 	ldhl	sp,	#4
      001429 7B                    4238 	ld	a, e
      00142A 22                    4239 	ld	(hl+), a
      00142B 7A                    4240 	ld	a, d
      00142C 22                    4241 	ld	(hl+), a
      00142D 79                    4242 	ld	a, c
      00142E 22                    4243 	ld	(hl+), a
      00142F 70                    4244 	ld	(hl), b
                                   4245 ;main.c:162: zy = cy;
      001430 F8 04                 4246 	ldhl	sp,	#4
      001432 54                    4247 	ld	d, h
      001433 5D                    4248 	ld	e, l
      001434 F8 08                 4249 	ldhl	sp,	#8
      001436 1A                    4250 	ld	a, (de)
      001437 22                    4251 	ld	(hl+), a
      001438 13                    4252 	inc	de
      001439 1A                    4253 	ld	a, (de)
      00143A 22                    4254 	ld	(hl+), a
      00143B 13                    4255 	inc	de
      00143C 1A                    4256 	ld	a, (de)
      00143D 22                    4257 	ld	(hl+), a
      00143E 13                    4258 	inc	de
      00143F 1A                    4259 	ld	a, (de)
      001440 77                    4260 	ld	(hl), a
                                   4261 ;main.c:163: zx = cx;
      001441 F8 00                 4262 	ldhl	sp,	#0
      001443 54                    4263 	ld	d, h
      001444 5D                    4264 	ld	e, l
      001445 F8 0C                 4265 	ldhl	sp,	#12
      001447 1A                    4266 	ld	a, (de)
      001448 22                    4267 	ld	(hl+), a
      001449 13                    4268 	inc	de
      00144A 1A                    4269 	ld	a, (de)
      00144B 22                    4270 	ld	(hl+), a
      00144C 13                    4271 	inc	de
      00144D 1A                    4272 	ld	a, (de)
      00144E 22                    4273 	ld	(hl+), a
      00144F 13                    4274 	inc	de
      001450 1A                    4275 	ld	a, (de)
      001451 77                    4276 	ld	(hl), a
                                   4277 ;main.c:165: for (i = 0; i < t; i++) {
      001452 AF                    4278 	xor	a, a
      001453 F8 10                 4279 	ldhl	sp,	#16
      001455 22                    4280 	ld	(hl+), a
      001456 77                    4281 	ld	(hl), a
      001457 AF                    4282 	xor	a, a
      001458 F8 1E                 4283 	ldhl	sp,	#30
      00145A 22                    4284 	ld	(hl+), a
      00145B 77                    4285 	ld	(hl), a
      00145C                       4286 00108$:
      00145C F8 1E                 4287 	ldhl	sp,	#30
      00145E 5D                    4288 	ld	e, l
      00145F 54                    4289 	ld	d, h
      001460 21r04r00              4290 	ld	hl, #_t
      001463 1A                    4291 	ld	a, (de)
      001464 96                    4292 	sub	a, (hl)
      001465 23                    4293 	inc	hl
      001466 13                    4294 	inc	de
      001467 1A                    4295 	ld	a, (de)
      001468 9E                    4296 	sbc	a, (hl)
      001469 1A                    4297 	ld	a, (de)
      00146A 57                    4298 	ld	d, a
      00146B CB 7E                 4299 	bit	7, (hl)
      00146D 28 07                 4300 	jr	Z, 00148$
      00146F CB 7A                 4301 	bit	7, d
      001471 20 08                 4302 	jr	NZ, 00149$
      001473 BF                    4303 	cp	a, a
      001474 18 05                 4304 	jr	00149$
      001476                       4305 00148$:
      001476 CB 7A                 4306 	bit	7, d
      001478 28 01                 4307 	jr	Z, 00149$
      00147A 37                    4308 	scf
      00147B                       4309 00149$:
      00147B D2r3Ar16              4310 	jp	NC, 00111$
                                   4311 ;main.c:166: long tmp = zx;
      00147E F8 0C                 4312 	ldhl	sp,	#12
      001480 54                    4313 	ld	d, h
      001481 5D                    4314 	ld	e, l
      001482 F8 1A                 4315 	ldhl	sp,	#26
      001484 1A                    4316 	ld	a, (de)
      001485 22                    4317 	ld	(hl+), a
      001486 13                    4318 	inc	de
      001487 1A                    4319 	ld	a, (de)
      001488 22                    4320 	ld	(hl+), a
      001489 13                    4321 	inc	de
      00148A 1A                    4322 	ld	a, (de)
      00148B 22                    4323 	ld	(hl+), a
      00148C 13                    4324 	inc	de
      00148D 1A                    4325 	ld	a, (de)
      00148E 77                    4326 	ld	(hl), a
                                   4327 ;main.c:167: zx = funcX(funcNum, zx, zy, cx);
      00148F 21r08r00              4328 	ld	hl, #_funcNum
      001492 2A                    4329 	ld	a, (hl+)
      001493 4F                    4330 	ld	c, a
      001494 7E                    4331 	ld	a, (hl)
      001495 47                    4332 	ld	b, a
      001496 17                    4333 	rla
      001497 9F                    4334 	sbc	a, a
      001498 5F                    4335 	ld	e, a
      001499 57                    4336 	ld	d, a
      00149A F8 02                 4337 	ldhl	sp,	#2
      00149C 2A                    4338 	ld	a, (hl+)
      00149D 66                    4339 	ld	h, (hl)
      00149E 6F                    4340 	ld	l, a
      00149F E5                    4341 	push	hl
      0014A0 F8 02                 4342 	ldhl	sp,	#2
      0014A2 2A                    4343 	ld	a, (hl+)
      0014A3 66                    4344 	ld	h, (hl)
      0014A4 6F                    4345 	ld	l, a
      0014A5 E5                    4346 	push	hl
      0014A6 F8 0E                 4347 	ldhl	sp,	#14
      0014A8 2A                    4348 	ld	a, (hl+)
      0014A9 66                    4349 	ld	h, (hl)
      0014AA 6F                    4350 	ld	l, a
      0014AB E5                    4351 	push	hl
      0014AC F8 0E                 4352 	ldhl	sp,	#14
      0014AE 2A                    4353 	ld	a, (hl+)
      0014AF 66                    4354 	ld	h, (hl)
      0014B0 6F                    4355 	ld	l, a
      0014B1 E5                    4356 	push	hl
      0014B2 F8 16                 4357 	ldhl	sp,	#22
      0014B4 2A                    4358 	ld	a, (hl+)
      0014B5 66                    4359 	ld	h, (hl)
      0014B6 6F                    4360 	ld	l, a
      0014B7 E5                    4361 	push	hl
      0014B8 F8 16                 4362 	ldhl	sp,	#22
      0014BA 2A                    4363 	ld	a, (hl+)
      0014BB 66                    4364 	ld	h, (hl)
      0014BC 6F                    4365 	ld	l, a
      0014BD E5                    4366 	push	hl
      0014BE D5                    4367 	push	de
      0014BF C5                    4368 	push	bc
      0014C0 CDr21r04              4369 	call	_funcX
      0014C3 E8 10                 4370 	add	sp, #16
      0014C5 4D                    4371 	ld	c, l
      0014C6 44                    4372 	ld	b, h
      0014C7 F8 0C                 4373 	ldhl	sp,	#12
      0014C9 7B                    4374 	ld	a, e
      0014CA 22                    4375 	ld	(hl+), a
      0014CB 7A                    4376 	ld	a, d
      0014CC 22                    4377 	ld	(hl+), a
      0014CD 79                    4378 	ld	a, c
      0014CE 22                    4379 	ld	(hl+), a
      0014CF 70                    4380 	ld	(hl), b
                                   4381 ;main.c:168: zy = funcY(funcNum, zy, cy, tmp);
      0014D0 21r08r00              4382 	ld	hl, #_funcNum
      0014D3 2A                    4383 	ld	a, (hl+)
      0014D4 4F                    4384 	ld	c, a
      0014D5 7E                    4385 	ld	a, (hl)
      0014D6 47                    4386 	ld	b, a
      0014D7 17                    4387 	rla
      0014D8 9F                    4388 	sbc	a, a
      0014D9 5F                    4389 	ld	e, a
      0014DA 57                    4390 	ld	d, a
      0014DB F8 1C                 4391 	ldhl	sp,	#28
      0014DD 2A                    4392 	ld	a, (hl+)
      0014DE 66                    4393 	ld	h, (hl)
      0014DF 6F                    4394 	ld	l, a
      0014E0 E5                    4395 	push	hl
      0014E1 F8 1C                 4396 	ldhl	sp,	#28
      0014E3 2A                    4397 	ld	a, (hl+)
      0014E4 66                    4398 	ld	h, (hl)
      0014E5 6F                    4399 	ld	l, a
      0014E6 E5                    4400 	push	hl
      0014E7 F8 0A                 4401 	ldhl	sp,	#10
      0014E9 2A                    4402 	ld	a, (hl+)
      0014EA 66                    4403 	ld	h, (hl)
      0014EB 6F                    4404 	ld	l, a
      0014EC E5                    4405 	push	hl
      0014ED F8 0A                 4406 	ldhl	sp,	#10
      0014EF 2A                    4407 	ld	a, (hl+)
      0014F0 66                    4408 	ld	h, (hl)
      0014F1 6F                    4409 	ld	l, a
      0014F2 E5                    4410 	push	hl
      0014F3 F8 12                 4411 	ldhl	sp,	#18
      0014F5 2A                    4412 	ld	a, (hl+)
      0014F6 66                    4413 	ld	h, (hl)
      0014F7 6F                    4414 	ld	l, a
      0014F8 E5                    4415 	push	hl
      0014F9 F8 12                 4416 	ldhl	sp,	#18
      0014FB 2A                    4417 	ld	a, (hl+)
      0014FC 66                    4418 	ld	h, (hl)
      0014FD 6F                    4419 	ld	l, a
      0014FE E5                    4420 	push	hl
      0014FF D5                    4421 	push	de
      001500 C5                    4422 	push	bc
      001501 CDr98r0B              4423 	call	_funcY
      001504 E8 10                 4424 	add	sp, #16
      001506 4D                    4425 	ld	c, l
      001507 44                    4426 	ld	b, h
      001508 F8 08                 4427 	ldhl	sp,	#8
      00150A 7B                    4428 	ld	a, e
      00150B 22                    4429 	ld	(hl+), a
      00150C 7A                    4430 	ld	a, d
      00150D 22                    4431 	ld	(hl+), a
      00150E 79                    4432 	ld	a, c
      00150F 22                    4433 	ld	(hl+), a
      001510 70                    4434 	ld	(hl), b
                                   4435 ;main.c:170: if ((zx*zx + zy*zy) > (4*(factor*factor))) {
      001511 F8 0E                 4436 	ldhl	sp,	#14
      001513 2A                    4437 	ld	a, (hl+)
      001514 66                    4438 	ld	h, (hl)
      001515 6F                    4439 	ld	l, a
      001516 E5                    4440 	push	hl
      001517 F8 0E                 4441 	ldhl	sp,	#14
      001519 2A                    4442 	ld	a, (hl+)
      00151A 66                    4443 	ld	h, (hl)
      00151B 6F                    4444 	ld	l, a
      00151C E5                    4445 	push	hl
      00151D F8 12                 4446 	ldhl	sp,	#18
      00151F 2A                    4447 	ld	a, (hl+)
      001520 66                    4448 	ld	h, (hl)
      001521 6F                    4449 	ld	l, a
      001522 E5                    4450 	push	hl
      001523 F8 12                 4451 	ldhl	sp,	#18
      001525 2A                    4452 	ld	a, (hl+)
      001526 66                    4453 	ld	h, (hl)
      001527 6F                    4454 	ld	l, a
      001528 E5                    4455 	push	hl
      001529 CDr00r00              4456 	call	__mullong
      00152C E8 08                 4457 	add	sp, #8
      00152E E5                    4458 	push	hl
      00152F F8 14                 4459 	ldhl	sp,	#20
      001531 73                    4460 	ld	(hl), e
      001532 F8 15                 4461 	ldhl	sp,	#21
      001534 72                    4462 	ld	(hl), d
      001535 E1                    4463 	pop	hl
      001536 E5                    4464 	push	hl
      001537 7D                    4465 	ld	a, l
      001538 F8 16                 4466 	ldhl	sp,	#22
      00153A 77                    4467 	ld	(hl), a
      00153B E1                    4468 	pop	hl
      00153C 7C                    4469 	ld	a, h
      00153D F8 15                 4470 	ldhl	sp,	#21
      00153F 77                    4471 	ld	(hl), a
      001540 F8 0A                 4472 	ldhl	sp,	#10
      001542 2A                    4473 	ld	a, (hl+)
      001543 66                    4474 	ld	h, (hl)
      001544 6F                    4475 	ld	l, a
      001545 E5                    4476 	push	hl
      001546 F8 0A                 4477 	ldhl	sp,	#10
      001548 2A                    4478 	ld	a, (hl+)
      001549 66                    4479 	ld	h, (hl)
      00154A 6F                    4480 	ld	l, a
      00154B E5                    4481 	push	hl
      00154C F8 0E                 4482 	ldhl	sp,	#14
      00154E 2A                    4483 	ld	a, (hl+)
      00154F 66                    4484 	ld	h, (hl)
      001550 6F                    4485 	ld	l, a
      001551 E5                    4486 	push	hl
      001552 F8 0E                 4487 	ldhl	sp,	#14
      001554 2A                    4488 	ld	a, (hl+)
      001555 66                    4489 	ld	h, (hl)
      001556 6F                    4490 	ld	l, a
      001557 E5                    4491 	push	hl
      001558 CDr00r00              4492 	call	__mullong
      00155B E8 08                 4493 	add	sp, #8
      00155D E5                    4494 	push	hl
      00155E F8 18                 4495 	ldhl	sp,	#24
      001560 73                    4496 	ld	(hl), e
      001561 F8 19                 4497 	ldhl	sp,	#25
      001563 72                    4498 	ld	(hl), d
      001564 E1                    4499 	pop	hl
      001565 E5                    4500 	push	hl
      001566 7D                    4501 	ld	a, l
      001567 F8 1A                 4502 	ldhl	sp,	#26
      001569 77                    4503 	ld	(hl), a
      00156A E1                    4504 	pop	hl
      00156B 7C                    4505 	ld	a, h
      00156C F8 19                 4506 	ldhl	sp,	#25
      00156E 77                    4507 	ld	(hl), a
      00156F F8 12                 4508 	ldhl	sp,#18
      001571 2A                    4509 	ld	a, (hl+)
      001572 5F                    4510 	ld	e, a
      001573 56                    4511 	ld	d, (hl)
      001574 7B                    4512 	ld	a, e
      001575 F8 16                 4513 	ldhl	sp,	#22
      001577 86                    4514 	add	a, (hl)
      001578 5F                    4515 	ld	e, a
      001579 7A                    4516 	ld	a, d
      00157A 23                    4517 	inc	hl
      00157B 8E                    4518 	adc	a, (hl)
      00157C F5                    4519 	push	af
      00157D F8 1D                 4520 	ldhl	sp,	#29
      00157F 32                    4521 	ld	(hl-), a
      001580 73                    4522 	ld	(hl), e
      001581 F8 16                 4523 	ldhl	sp,#22
      001583 2A                    4524 	ld	a, (hl+)
      001584 5F                    4525 	ld	e, a
      001585 56                    4526 	ld	d, (hl)
      001586 F8 1A                 4527 	ldhl	sp,	#26
      001588 F1                    4528 	pop	af
      001589 7B                    4529 	ld	a, e
      00158A 8E                    4530 	adc	a, (hl)
      00158B 5F                    4531 	ld	e, a
      00158C 7A                    4532 	ld	a, d
      00158D 23                    4533 	inc	hl
      00158E 8E                    4534 	adc	a, (hl)
      00158F F8 1D                 4535 	ldhl	sp,	#29
      001591 32                    4536 	ld	(hl-), a
      001592 73                    4537 	ld	(hl), e
      001593 21r10r00              4538 	ld	hl, #_factor
      001596 2A                    4539 	ld	a, (hl+)
      001597 66                    4540 	ld	h, (hl)
      001598 6F                    4541 	ld	l, a
      001599 E5                    4542 	push	hl
      00159A 21r10r00              4543 	ld	hl, #_factor
      00159D 2A                    4544 	ld	a, (hl+)
      00159E 66                    4545 	ld	h, (hl)
      00159F 6F                    4546 	ld	l, a
      0015A0 E5                    4547 	push	hl
      0015A1 CDr00r00              4548 	call	__mulint
      0015A4 E8 04                 4549 	add	sp, #4
      0015A6 7A                    4550 	ld	a, d
      0015A7 CB 23                 4551 	sla	e
      0015A9 8F                    4552 	adc	a, a
      0015AA CB 23                 4553 	sla	e
      0015AC 8F                    4554 	adc	a, a
      0015AD F8 16                 4555 	ldhl	sp,	#22
      0015AF 73                    4556 	ld	(hl), e
      0015B0 23                    4557 	inc	hl
      0015B1 77                    4558 	ld	(hl), a
      0015B2 17                    4559 	rla
      0015B3 9F                    4560 	sbc	a, a
      0015B4 23                    4561 	inc	hl
      0015B5 22                    4562 	ld	(hl+), a
      0015B6 77                    4563 	ld	(hl), a
      0015B7 F8 16                 4564 	ldhl	sp,	#22
      0015B9 5D                    4565 	ld	e, l
      0015BA 54                    4566 	ld	d, h
      0015BB F8 1A                 4567 	ldhl	sp,	#26
      0015BD 1A                    4568 	ld	a, (de)
      0015BE 96                    4569 	sub	a, (hl)
      0015BF 23                    4570 	inc	hl
      0015C0 13                    4571 	inc	de
      0015C1 1A                    4572 	ld	a, (de)
      0015C2 9E                    4573 	sbc	a, (hl)
      0015C3 23                    4574 	inc	hl
      0015C4 13                    4575 	inc	de
      0015C5 1A                    4576 	ld	a, (de)
      0015C6 9E                    4577 	sbc	a, (hl)
      0015C7 23                    4578 	inc	hl
      0015C8 13                    4579 	inc	de
      0015C9 1A                    4580 	ld	a, (de)
      0015CA 9E                    4581 	sbc	a, (hl)
      0015CB 1A                    4582 	ld	a, (de)
      0015CC 57                    4583 	ld	d, a
      0015CD CB 7E                 4584 	bit	7, (hl)
      0015CF 28 07                 4585 	jr	Z, 00151$
      0015D1 CB 7A                 4586 	bit	7, d
      0015D3 20 08                 4587 	jr	NZ, 00152$
      0015D5 BF                    4588 	cp	a, a
      0015D6 18 05                 4589 	jr	00152$
      0015D8                       4590 00151$:
      0015D8 CB 7A                 4591 	bit	7, d
      0015DA 28 01                 4592 	jr	Z, 00152$
      0015DC 37                    4593 	scf
      0015DD                       4594 00152$:
      0015DD 30 31                 4595 	jr	NC, 00102$
                                   4596 ;main.c:171: plot(x,y,smoothColor(i,x,y),SOLID);
      0015DF 21r0Cr00              4597 	ld	hl, #_y
      0015E2 2A                    4598 	ld	a, (hl+)
      0015E3 66                    4599 	ld	h, (hl)
      0015E4 6F                    4600 	ld	l, a
      0015E5 E5                    4601 	push	hl
      0015E6 21r0Ar00              4602 	ld	hl, #_x
      0015E9 2A                    4603 	ld	a, (hl+)
      0015EA 66                    4604 	ld	h, (hl)
      0015EB 6F                    4605 	ld	l, a
      0015EC E5                    4606 	push	hl
      0015ED F8 14                 4607 	ldhl	sp,	#20
      0015EF 2A                    4608 	ld	a, (hl+)
      0015F0 66                    4609 	ld	h, (hl)
      0015F1 6F                    4610 	ld	l, a
      0015F2 E5                    4611 	push	hl
      0015F3 CDr77r00              4612 	call	_smoothColor
      0015F6 E8 06                 4613 	add	sp, #6
      0015F8 7B                    4614 	ld	a, e
      0015F9 21r0Cr00              4615 	ld	hl, #_y
      0015FC 46                    4616 	ld	b, (hl)
      0015FD 21r0Ar00              4617 	ld	hl, #_x
      001600 56                    4618 	ld	d, (hl)
      001601 26 00                 4619 	ld	h, #0x00
      001603 E5                    4620 	push	hl
      001604 33                    4621 	inc	sp
      001605 F5                    4622 	push	af
      001606 33                    4623 	inc	sp
      001607 4A                    4624 	ld	c, d
      001608 C5                    4625 	push	bc
      001609 CDr00r00              4626 	call	_plot
      00160C E8 04                 4627 	add	sp, #4
                                   4628 ;main.c:172: break;
      00160E 18 2A                 4629 	jr	00111$
      001610                       4630 00102$:
                                   4631 ;main.c:174: plot(x,y,BLACK,SOLID);
      001610 FAr0Cr00              4632 	ld	a, (#_y)
      001613 21r0Ar00              4633 	ld	hl, #_x
      001616 46                    4634 	ld	b, (hl)
      001617 26 00                 4635 	ld	h, #0x00
      001619 E5                    4636 	push	hl
      00161A 33                    4637 	inc	sp
      00161B 26 03                 4638 	ld	h, #0x03
      00161D E5                    4639 	push	hl
      00161E 33                    4640 	inc	sp
      00161F F5                    4641 	push	af
      001620 33                    4642 	inc	sp
      001621 C5                    4643 	push	bc
      001622 33                    4644 	inc	sp
      001623 CDr00r00              4645 	call	_plot
      001626 E8 04                 4646 	add	sp, #4
                                   4647 ;main.c:165: for (i = 0; i < t; i++) {
      001628 F8 1E                 4648 	ldhl	sp,	#30
      00162A 34                    4649 	inc	(hl)
      00162B 20 02                 4650 	jr	NZ, 00153$
      00162D 23                    4651 	inc	hl
      00162E 34                    4652 	inc	(hl)
      00162F                       4653 00153$:
      00162F F8 1E                 4654 	ldhl	sp,	#30
      001631 2A                    4655 	ld	a, (hl+)
      001632 5E                    4656 	ld	e, (hl)
      001633 F8 10                 4657 	ldhl	sp,	#16
      001635 22                    4658 	ld	(hl+), a
      001636 73                    4659 	ld	(hl), e
      001637 C3r5Cr14              4660 	jp	00108$
      00163A                       4661 00111$:
                                   4662 ;main.c:157: for (x = 0; x < SCREEN_WIDTH; x++) {
      00163A 21r0Ar00              4663 	ld	hl, #_x
      00163D 34                    4664 	inc	(hl)
      00163E 20 02                 4665 	jr	NZ, 00154$
      001640 23                    4666 	inc	hl
      001641 34                    4667 	inc	(hl)
      001642                       4668 00154$:
      001642 21r0Ar00              4669 	ld	hl, #_x
      001645 7E                    4670 	ld	a, (hl)
      001646 D6 A0                 4671 	sub	a, #0xa0
      001648 23                    4672 	inc	hl
      001649 7E                    4673 	ld	a, (hl)
      00164A DE 00                 4674 	sbc	a, #0x00
      00164C 56                    4675 	ld	d, (hl)
      00164D 3E 00                 4676 	ld	a, #0x00
      00164F CB 7F                 4677 	bit	7,a
      001651 28 07                 4678 	jr	Z, 00155$
      001653 CB 7A                 4679 	bit	7, d
      001655 20 08                 4680 	jr	NZ, 00156$
      001657 BF                    4681 	cp	a, a
      001658 18 05                 4682 	jr	00156$
      00165A                       4683 00155$:
      00165A CB 7A                 4684 	bit	7, d
      00165C 28 01                 4685 	jr	Z, 00156$
      00165E 37                    4686 	scf
      00165F                       4687 00156$:
      00165F DAr1Br13              4688 	jp	C, 00110$
                                   4689 ;main.c:156: for (y = 0; y < SCREEN_HEIGHT; y++) {
      001662 21r0Cr00              4690 	ld	hl, #_y
      001665 34                    4691 	inc	(hl)
      001666 20 02                 4692 	jr	NZ, 00157$
      001668 23                    4693 	inc	hl
      001669 34                    4694 	inc	(hl)
      00166A                       4695 00157$:
      00166A 21r0Cr00              4696 	ld	hl, #_y
      00166D 7E                    4697 	ld	a, (hl)
      00166E D6 90                 4698 	sub	a, #0x90
      001670 23                    4699 	inc	hl
      001671 7E                    4700 	ld	a, (hl)
      001672 DE 00                 4701 	sbc	a, #0x00
      001674 56                    4702 	ld	d, (hl)
      001675 3E 00                 4703 	ld	a, #0x00
      001677 5F                    4704 	ld	e, a
      001678 CB 7B                 4705 	bit	7, e
      00167A 28 07                 4706 	jr	Z, 00158$
      00167C CB 7A                 4707 	bit	7, d
      00167E 20 08                 4708 	jr	NZ, 00159$
      001680 BF                    4709 	cp	a, a
      001681 18 05                 4710 	jr	00159$
      001683                       4711 00158$:
      001683 CB 7A                 4712 	bit	7, d
      001685 28 01                 4713 	jr	Z, 00159$
      001687 37                    4714 	scf
      001688                       4715 00159$:
      001688 DAr13r13              4716 	jp	C, 00112$
                                   4717 ;main.c:179: }
      00168B E8 20                 4718 	add	sp, #32
      00168D C9                    4719 	ret
                                   4720 ;main.c:181: long main(void) {
                                   4721 ;	---------------------------------
                                   4722 ; Function main
                                   4723 ; ---------------------------------
      00168E                       4724 _main::
                                   4725 ;main.c:182: factor = 50;
      00168E 21r10r00              4726 	ld	hl, #_factor
      001691 3E 32                 4727 	ld	a, #0x32
      001693 22                    4728 	ld	(hl+), a
      001694 36 00                 4729 	ld	(hl), #0x00
                                   4730 ;main.c:183: res = 1;
      001696 21r0Er00              4731 	ld	hl, #_res
      001699 3E 01                 4732 	ld	a, #0x01
      00169B 22                    4733 	ld	(hl+), a
      00169C 36 00                 4734 	ld	(hl), #0x00
                                   4735 ;main.c:184: x = 0;
      00169E 21r0Ar00              4736 	ld	hl, #_x
      0016A1 3E 00                 4737 	ld	a, #0x00
      0016A3 22                    4738 	ld	(hl+), a
      0016A4 36 00                 4739 	ld	(hl), #0x00
                                   4740 ;main.c:185: y = 0;
      0016A6 21r0Cr00              4741 	ld	hl, #_y
      0016A9 3E 00                 4742 	ld	a, #0x00
      0016AB 22                    4743 	ld	(hl+), a
      0016AC 36 00                 4744 	ld	(hl), #0x00
                                   4745 ;main.c:186: juliaMode = 0;
      0016AE 21r06r00              4746 	ld	hl, #_juliaMode
      0016B1 3E 00                 4747 	ld	a, #0x00
      0016B3 22                    4748 	ld	(hl+), a
      0016B4 36 00                 4749 	ld	(hl), #0x00
                                   4750 ;main.c:187: funcNum = 2;
      0016B6 21r08r00              4751 	ld	hl, #_funcNum
      0016B9 3E 02                 4752 	ld	a, #0x02
      0016BB 22                    4753 	ld	(hl+), a
      0016BC 36 00                 4754 	ld	(hl), #0x00
                                   4755 ;main.c:188: t = 25;
      0016BE 21r04r00              4756 	ld	hl, #_t
      0016C1 3E 19                 4757 	ld	a, #0x19
      0016C3 22                    4758 	ld	(hl+), a
      0016C4 36 00                 4759 	ld	(hl), #0x00
                                   4760 ;main.c:189: xCoord = 0;
      0016C6 21r12r00              4761 	ld	hl, #_xCoord
      0016C9 3E 00                 4762 	ld	a,#0x00
      0016CB 22                    4763 	ld	(hl+),a
      0016CC 22                    4764 	ld	(hl+), a
      0016CD 3E 00                 4765 	ld	a, #0x00
      0016CF 22                    4766 	ld	(hl+), a
      0016D0 36 00                 4767 	ld	(hl), #0x00
                                   4768 ;main.c:190: yCoord = 0;
      0016D2 21r16r00              4769 	ld	hl, #_yCoord
      0016D5 3E 00                 4770 	ld	a,#0x00
      0016D7 22                    4771 	ld	(hl+),a
      0016D8 22                    4772 	ld	(hl+), a
      0016D9 3E 00                 4773 	ld	a, #0x00
      0016DB 22                    4774 	ld	(hl+), a
      0016DC 36 00                 4775 	ld	(hl), #0x00
                                   4776 ;main.c:191: Zoom = 10;
      0016DE 21r1Ar00              4777 	ld	hl, #_Zoom
      0016E1 3E 0A                 4778 	ld	a, #0x0a
      0016E3 22                    4779 	ld	(hl+), a
      0016E4 3E 00                 4780 	ld	a,#0x00
      0016E6 22                    4781 	ld	(hl+),a
      0016E7 22                    4782 	ld	(hl+), a
      0016E8 36 00                 4783 	ld	(hl), #0x00
                                   4784 ;main.c:192: drawSetInMode();
      0016EA CDr09r13              4785 	call	_drawSetInMode
                                   4786 ;main.c:198: return 0;
      0016ED 11 00 00              4787 	ld	de, #0x0000
      0016F0 21 00 00              4788 	ld	hl, #0x0000
                                   4789 ;main.c:199: }
      0016F3 C9                    4790 	ret
                                   4791 	.area _CODE
                                   4792 	.area _CABS (ABS)
